;;; Segment .text (00411000)
00411000 CC CC CC CC CC E9 E5 46 00 00 E9 21 16 00 00    .......F...!...

l0041100F:
	jmp	004133B0

;; fn00411014: 00411014
;;   Called from:
;;     00413BC0 (in fn00413BB0)
fn00411014 proc
	jmp	00415280
00411019                            E9 22 32 00 00 E9 6E          ."2...n
00411020 47 00 00 E9 8B 4A 00 00                         G....J..       

;; fn00411028: 00411028
;;   Called from:
;;     00412917 (in fn004127A0)
fn00411028 proc
	jmp	00415743
0041102D                                        E9 5E 37              .^7
00411030 00 00 E9 34 4A 00 00 E9 89 4A 00 00 E9 CF 2B 00 ...4J....J....+.
00411040 00 E9 4A 31 00 00                               ..J1..         

;; fn00411046: 00411046
;;   Called from:
;;     00412F35 (in fn00412EF0)
fn00411046 proc
	jmp	00413790
0041104B                                  E9 30 13 00 00            .0...
00411050 E9 AB 34 00 00 E9 26 31 00 00                   ..4...&1..     

;; fn0041105A: 0041105A
;;   Called from:
;;     00411DBF (in fn00411307)
fn0041105A proc
	jmp	004122EF
0041105F                                              E9                .
00411060 2B 4A 00 00                                     +J..           

;; fn00411064: 00411064
;;   Called from:
;;     00412A98 (in fn00412A70)
fn00411064 proc
	jmp	00415900
00411069                            E9 35 47 00 00                .5G.. 

;; fn0041106E: 0041106E
;;   Called from:
;;     004133BB (in fn004133B0)
;;     0041431B (in fn00411361)
;;     004152AB (in fn00411014)
fn0041106E proc
	jmp	00415A9B
00411073          E9 A8 25 00 00                            ..%..       

;; fn00411078: 00411078
;;   Called from:
;;     00414862 (in fn00414810)
;;     004148FE (in fn00414810)
;;     00414DDC (in fn00411401)
fn00411078 proc
	jmp	004156CB

;; fn0041107D: 0041107D
;;   Called from:
;;     0041282D (in fn004127A0)
fn0041107D proc
	jmp	0041572B
00411082       E9 59 35 00 00 E9 21 46 00 00               .Y5...!F..   

;; fn0041108C: 0041108C
;;   Called from:
;;     00411BCB (in fn00411307)
fn0041108C proc
	jmp	004122D7
00411091    E9 35 4A 00 00 E9 75 4A 00 00                 .5J...uJ..    

;; fn0041109B: 0041109B
;;   Called from:
;;     00413EEF (in fn004112C6)
fn0041109B proc
	jmp	00415B40
004110A0 E9 6B 21 00 00 E9 26 1B 00 00 E9 11 32 00 00    .k!...&.....2..

;; fn004110AF: 004110AF
;;   Called from:
;;     00412876 (in fn004127A0)
fn004110AF proc
	jmp	00413EA0
004110B4             E9 97 4A 00 00 E9 22 31 00 00 E9 6D     ..J..."1...m
004110C0 4A 00 00 E9 21 46 00 00                         J...!F..       

;; fn004110C8: 004110C8
;;   Called from:
;;     004128EA (in fn004127A0)
fn004110C8 proc
	jmp	0041574F
004110CD                                        E9 8E 4A              ..J
004110D0 00 00                                           ..             

;; fn004110D2: 004110D2
;;   Called from:
;;     004134AA (in fn004133B0)
fn004110D2 proc
	jmp	00413370
004110D7                      E9 44 4A 00 00 E9 1A 46 00        .DJ....F.
004110E0 00 E9 3A 4A 00 00 E9 3A 12 00 00                ..:J...:...    

;; fn004110EB: 004110EB
;;   Called from:
;;     00411B9C (in fn00411307)
fn004110EB proc
	jmp	004122E3
004110F0 E9 5B 31 00 00 E9 B6 4B 00 00 E9 11 24 00 00    .[1....K....$..

;; fn004110FF: 004110FF
;;   Called from:
;;     004139C6 (in fn004113FC)
;;     00413EA3 (in fn004110AF)
fn004110FF proc
	jmp	00415680
00411104             E9 87 29 00 00 E9 7D 46 00 00           ..)...}F.. 

;; fn0041110E: 0041110E
;;   Called from:
;;     00413BE3 (in fn00413BB0)
;;     00413EFC (in fn004112C6)
fn0041110E proc
	jmp	00415B40
00411113          E9 31 46 00 00 E9 A2 49 00 00 E9 8E 19    .1F....I.....
00411120 00 00                                           ..             

;; fn00411122: 00411122
;;   Called from:
;;     00414341 (in fn00411361)
;;     004143CE (in fn00411361)
;;     004144AE (in fn0041127B)
fn00411122 proc
	jmp	004156BF

;; fn00411127: 00411127
;;   Called from:
;;     00411DE1 (in fn00411307)
fn00411127 proc
	jmp	00412301
0041112C                                     E9 2F 29 00             ./).
00411130 00 E9 CA 30 00 00 E9 F6 11 00 00 E9 3F 46 00 00 ...0........?F..

;; fn00411140: 00411140
;;   Called from:
;;     00411B63 (in fn00411307)
fn00411140 proc
	jmp	00412307
00411145                E9 6F 49 00 00                        .oI..     

;; fn0041114A: 0041114A
;;   Called from:
;;     0041432B (in fn00411361)
;;     00414439 (in fn00411361)
fn0041114A proc
	jmp	00414690

;; fn0041114F: 0041114F
;;   Called from:
;;     00414849 (in fn00414810)
fn0041114F proc
	jmp	004156D1

;; fn00411154: 00411154
;;   Called from:
;;     004127D5 (in fn004127A0)
fn00411154 proc
	jmp	00413BB0
00411159                            E9 19 49 00 00 E9 26          ..I...&
00411160 49 00 00 E9 48 30 00 00 E9 46 45 00 00 E9 5E 19 I...H0...FE...^.
00411170 00 00                                           ..             

;; fn00411172: 00411172
;;   Called from:
;;     00411DD2 (in fn00411307)
fn00411172 proc
	jmp	00411F50

;; fn00411177: 00411177
;;   Called from:
;;     00413BC5 (in fn00413BB0)
fn00411177 proc
	jmp	00415B10

;; fn0041117C: 0041117C
;;   Called from:
;;     00412DC2 (in fn004111EA)
;;     00412DD8 (in fn004111EA)
fn0041117C proc
	jmp	0041576D
00411181    E9 ED 45 00 00 E9 A0 11 00 00 E9 20 35 00 00  ..E........ 5..
00411190 E9 A2 45 00 00 E9 C6 48 00 00                   ..E....H..     

;; fn0041119A: 0041119A
;;   Called from:
;;     00414D32 (in fn00414C90)
fn0041119A proc
	jmp	004157A9
0041119F                                              E9                .
004111A0 5C 23 00 00 E9 47 34 00 00                      \#...G4..      

;; fn004111A9: 004111A9
;;   Called from:
;;     00412F26 (in fn00412EF0)
fn004111A9 proc
	jmp	004137A0
004111AE                                           E9 AE               ..
004111B0 45 00 00 E9 48 21 00 00 E9 83 11 00 00 E9 2E 21 E...H!.........!
004111C0 00 00 E9 B6 48 00 00 E9 44 14 00 00             ....H...D...   

;; fn004111CC: 004111CC
;;   Called from:
;;     004159C0 (in fn00415920)
fn004111CC proc
	jmp	00415B01
004111D1    E9 BA 29 00 00                                ..)..         

;; fn004111D6: 004111D6
;;   Called from:
;;     00411E3B (in fn00411307)
fn004111D6 proc
	jmp	0041230D
004111DB                                  E9 7B 45 00 00            .{E..

;; fn004111E0: 004111E0
;;   Called from:
;;     0041287E (in fn004127A0)
fn004111E0 proc
	jmp	004142F0
004111E5                E9 B3 45 00 00                        ..E..     

;; fn004111EA: 004111EA
;;   Called from:
;;     004124D1 (in fn00412490)
fn004111EA proc
	jmp	00412D60

;; fn004111EF: 004111EF
;;   Called from:
;;     004128B8 (in fn004127A0)
;;     00413031 (in fn00412EF0)
;;     004130CC (in fn00412EF0)
;;     00414A5A (in fn004149A0)
;;     00414AAE (in fn004149A0)
;;     00414AC6 (in fn004149A0)
;;     00414EB6 (in fn00411401)
;;     00414EE0 (in fn00411401)
;;     00414F0A (in fn00411401)
;;     00414F34 (in fn00411401)
;;     00414F54 (in fn00411401)
;;     00414F78 (in fn00411401)
;;     00414FA4 (in fn00411401)
;;     00414FD9 (in fn00411401)
;;     00415002 (in fn00411401)
;;     00415016 (in fn00411401)
;;     0041502A (in fn00411401)
;;     0041503E (in fn00411401)
;;     00415098 (in fn00411401)
;;     004150F6 (in fn00411401)
fn004111EF proc
	jmp	00414780
004111F4             E9 1A 11 00 00 E9 0F 45 00 00 E9 AA     .......E....
00411200 48 00 00                                        H..            

;; fn00411203: 00411203
;;   Called from:
;;     00411D33 (in fn00411307)
fn00411203 proc
	jmp	004122DD
00411208                         E9 63 49 00 00 E9 0E 28         .cI....(
00411210 00 00                                           ..             

;; fn00411212: 00411212
;;   Called from:
;;     00412034 (in fn00411172)
;;     00412073 (in fn00411172)
;;     004120ED (in fn00411172)
;;     0041212C (in fn00411172)
;;     0041217E (in fn00411172)
;;     004121AE (in fn00411172)
fn00411212 proc
	jmp	004122F5

;; fn00411217: 00411217
;;   Called from:
;;     00412892 (in fn004127A0)
;;     004128D5 (in fn004127A0)
fn00411217 proc
	jmp	00413D20
0041121C                                     E9 86 48 00             ..H.
00411220 00                                              .              

;; fn00411221: 00411221
;;   Called from:
;;     00412859 (in fn004127A0)
fn00411221 proc
	jmp	00415725
00411226                   E9 05 08 00 00 E9 B0 25 00 00       .......%..

;; fn00411230: 00411230
;;   Called from:
;;     004128FA (in fn004127A0)
fn00411230 proc
	jmp	00414510
00411235                E9 C1 48 00 00 E9 B6 44 00 00 E9      ..H....D...
00411240 99 44 00 00 E9 87 35 00 00                      .D....5..      

;; fn00411249: 00411249
;;   Called from:
;;     00411E71 (in fn00411307)
;;     00412E02 (in fn004111EA)
;;     004130E5 (in fn00412EF0)
;;     00414947 (in fn00414810)
;;     00414A77 (in fn004149A0)
;;     00414BED (in fn004149A0)
;;     00414D49 (in fn00414C90)
;;     00414D5A (in fn00414C90)
;;     004155A9 (in fn00411014)
fn00411249 proc
	jmp	00412590
0041124E                                           E9 66               .f
00411250 44 00 00 E9 48 2D 00 00 E9 38 48 00 00 E9 17 45 D...H-...8H....E
00411260 00 00 E9 B8 10 00 00 E9 34 2F 00 00 E9 9F 25 00 ........4/....%.
00411270 00 E9 A3 10 00 00                               ......         

;; fn00411276: 00411276
;;   Called from:
;;     00411DB0 (in fn00411307)
;;     00411FDC (in fn00411172)
;;     00412095 (in fn00411172)
;;     0041214E (in fn00411172)
;;     004121C8 (in fn00411172)
fn00411276 proc
	jmp	004122E9

;; fn0041127B: 0041127B
;;   Called from:
;;     00412A76 (in fn00412A70)
fn0041127B proc
	jmp	004144A0
00411280 E9 9B 48 00 00                                  ..H..          

;; fn00411285: 00411285
;;   Called from:
;;     00411ABD (in fn00411307)
;;     00411F73 (in fn00411172)
fn00411285 proc
	jmp	00412540
0041128A                               E9 61 2D 00 00              .a-..

;; fn0041128F: 0041128F
;;   Called from:
;;     00411AEA (in fn00411307)
;;     00411B3C (in fn00411307)
;;     00411BB9 (in fn00411307)
;;     00411BF9 (in fn00411307)
;;     00411C65 (in fn00411307)
;;     00411CA1 (in fn00411307)
;;     00411D10 (in fn00411307)
;;     00411E0C (in fn00411307)
;;     00411E34 (in fn00411307)
;;     00411E51 (in fn00411307)
;;     00411E7E (in fn00411307)
;;     004121FD (in fn00411172)
fn0041128F proc
	jmp	00412500
00411294             E9 57 28 00 00 E9 45 44 00 00 E9 7D     .W(...ED...}
004112A0 2C 00 00 E9 B8 48 00 00 E9 B3 17 00 00 E9 EF 47 ,....H.........G
004112B0 00 00                                           ..             

;; fn004112B2: 004112B2
;;   Called from:
;;     004128C1 (in fn004127A0)
fn004112B2 proc
	jmp	00414300

;; fn004112B7: 004112B7
;;   Called from:
;;     00411E62 (in fn00411307)
fn004112B7 proc
	jmp	00412490

;; fn004112BC: 004112BC
;;   Called from:
;;     00411B83 (in fn00411307)
fn004112BC proc
	jmp	004122D1

;; Win32CrtStartup: 004112C1
Win32CrtStartup proc
	jmp	00412B10

;; fn004112C6: 004112C6
;;   Called from:
;;     00412920 (in fn004127A0)
fn004112C6 proc
	jmp	00413ED0
004112CB                                  E9 13 48 00 00            ..H..
004112D0 E9 EB 12 00 00 E9 BD 44 00 00                   .......D..     

;; fn004112DA: 004112DA
;;   Called from:
;;     0041290A (in fn004127A0)
fn004112DA proc
	jmp	00415731
004112DF                                              E9                .
004112E0 2C 2F 00 00 E9 47 48 00 00                      ,/...GH..      

;; fn004112E9: 004112E9
;;   Called from:
;;     00414CD5 (in fn00414C90)
fn004112E9 proc
	jmp	004157AF

;; fn004112EE: 004112EE
;;   Called from:
;;     0041251A (in fn00412500)
fn004112EE proc
	jmp	00412CF0
004112F3          E9 B8 12 00 00 E9 16 44 00 00 E9 6E 48    .......D...nH
00411300 00 00 E9 E9 17 00 00                            .......        

;; fn00411307: 00411307
;;   Called from:
;;     004159C7 (in fn00415920)
fn00411307 proc
	jmp	00411A90
0041130C                                     E9 72 47 00             .rG.
00411310 00 E9 2A 48 00 00 E9 25 20 00 00 E9 10 48 00 00 ..*H...% ....H..
00411320 E9 18 44 00 00 E9 C6 31 00 00 E9 C1 33 00 00 E9 ..D....1....3...
00411330 DC 45 00 00 E9 27 2F 00 00 E9 12 28 00 00 E9 0D .E...'/....(....
00411340 48 00 00 E9 88 12 00 00                         H.......       

;; fn00411348: 00411348
;;   Called from:
;;     00412783 (in fn00412780)
fn00411348 proc
	jmp	004140C0

;; fn0041134D: 0041134D
;;   Called from:
;;     00412DB0 (in fn004111EA)
fn0041134D proc
	jmp	00415767
00411352       E9 79 24 00 00                              .y$..        

;; fn00411357: 00411357
;;   Called from:
;;     0041489B (in fn00414810)
;;     004148C1 (in fn00414810)
;;     004148D9 (in fn00414810)
;;     00414934 (in fn00414810)
;;     004149C2 (in fn004149A0)
;;     004149DB (in fn004149A0)
;;     004149FB (in fn004149A0)
;;     00414BB6 (in fn004149A0)
;;     00414BD9 (in fn004149A0)
fn00411357 proc
	jmp	004156D7

;; fn0041135C: 0041135C
;;   Called from:
;;     00413BD5 (in fn00413BB0)
fn0041135C proc
	jmp	00415B10

;; fn00411361: 00411361
;;   Called from:
;;     004127E6 (in fn004127A0)
;;     00412809 (in fn004127A0)
fn00411361 proc
	jmp	00414310
00411366                   E9 55 2E 00 00 E9 15 44 00 00       .U.....D..
00411370 E9 FB 2D 00 00 E9 75 47 00 00 E9 E6 46 00 00 E9 ..-...uG....F...
00411380 2C 34 00 00 E9 D7 2D 00 00 E9 E3 46 00 00 E9 9D ,4....-....F....
00411390 12 00 00 E9 69 43 00 00 E9 7C 43 00 00 E9 65 43 ....iC...|C...eC
004113A0 00 00 E9 4E 47 00 00 E9 19 43 00 00 E9 9F 47 00 ...NG....C....G.
004113B0 00                                              .              

;; fn004113B1: 004113B1
;;   Called from:
;;     00412A81 (in fn00412A70)
fn004113B1 proc
	jmp	0041571F
004113B6                   E9 16 47 00 00 E9 10 27 00 00       ..G....'..
004113C0 E9 EB 23 00 00 E9 76 16 00 00 E9 0E 47 00 00    ..#...v.....G..

;; fn004113CF: 004113CF
;;   Called from:
;;     00414CEF (in fn00414C90)
;;     00414D09 (in fn00414C90)
fn004113CF proc
	jmp	004157B5
004113D4             E9 10 47 00 00 E9 E2 31 00 00 E9 72     ..G....1...r
004113E0 43 00 00                                        C..            

;; fn004113E3: 004113E3
;;   Called from:
;;     004121E3 (in fn00411172)
fn004113E3 proc
	jmp	004122FB
004113E8                         E9 F3 31 00 00 E9 E5 46         ..1....F
004113F0 00 00 E9 79 2E 00 00                            ...y...        

;; fn004113F7: 004113F7
;;   Called from:
;;     004139D3 (in fn004113FC)
fn004113F7 proc
	jmp	004139B0

;; fn004113FC: 004113FC
;;   Called from:
;;     004127F6 (in fn004127A0)
fn004113FC proc
	jmp	004139C0

;; fn00411401: 00411401
;;   Called from:
;;     00413000 (in fn00412EF0)
fn00411401 proc
	jmp	00414DA0
00411406                   E9 35 24 00 00                      .5$..    

;; fn0041140B: 0041140B
;;   Called from:
;;     00415A03 (in fn00415920)
fn0041140B proc
	jmp	00415B07
00411410 E9 AF 05 00 00 CC CC CC CC CC CC CC CC CC CC CC ................
00411420 CC CC CC CC CC CC CC CC CC CC CC CC CC CC CC CC ................
00411430 CC CC CC CC CC CC CC CC CC CC CC CC CC CC CC CC ................
00411440 CC CC CC CC CC CC CC CC CC CC CC CC CC CC CC CC ................
00411450 CC CC CC CC CC CC CC CC CC CC CC CC CC CC CC CC ................
00411460 CC CC CC CC CC CC CC CC CC CC CC CC CC CC CC CC ................
00411470 CC CC CC CC CC CC CC CC CC CC CC CC CC CC CC CC ................
00411480 CC CC CC CC CC CC CC CC CC CC CC CC CC CC CC CC ................
00411490 CC CC CC CC CC CC CC CC CC CC CC CC CC CC CC CC ................
004114A0 CC CC CC CC CC CC CC CC CC CC CC CC CC CC CC CC ................
004114B0 CC CC CC CC CC CC CC CC CC CC CC CC CC CC CC CC ................
004114C0 CC CC CC CC CC CC CC CC CC CC CC CC CC CC CC CC ................
004114D0 CC CC CC CC CC CC CC CC CC CC CC CC CC CC CC CC ................
004114E0 CC CC CC CC CC CC CC CC CC CC CC CC CC CC CC CC ................
004114F0 CC CC CC CC CC CC CC CC CC CC CC CC CC CC CC CC ................
00411500 CC CC CC CC CC CC CC CC CC CC CC CC CC CC CC CC ................
00411510 CC CC CC CC CC CC CC CC CC CC CC CC CC CC CC CC ................
00411520 CC CC CC CC CC CC CC CC CC CC CC CC CC CC CC CC ................
00411530 CC CC CC CC CC CC CC CC CC CC CC CC CC CC CC CC ................
00411540 CC CC CC CC CC CC CC CC CC CC CC CC CC CC CC CC ................
00411550 CC CC CC CC CC CC CC CC CC CC CC CC CC CC CC CC ................
00411560 CC CC CC CC CC CC CC CC CC CC CC CC CC CC CC CC ................
00411570 CC CC CC CC CC CC CC CC CC CC CC CC CC CC CC CC ................
00411580 CC CC CC CC CC CC CC CC CC CC CC CC CC CC CC CC ................
00411590 CC CC CC CC CC CC CC CC CC CC CC CC CC CC CC CC ................
004115A0 CC CC CC CC CC CC CC CC CC CC CC CC CC CC CC CC ................
004115B0 CC CC CC CC CC CC CC CC CC CC CC CC CC CC CC CC ................
004115C0 CC CC CC CC CC CC CC CC CC CC CC CC CC CC CC CC ................
004115D0 CC CC CC CC CC CC CC CC CC CC CC CC CC CC CC CC ................
004115E0 CC CC CC CC CC CC CC CC CC CC CC CC CC CC CC CC ................
004115F0 CC CC CC CC CC CC CC CC CC CC CC CC CC CC CC CC ................
00411600 CC CC CC CC CC CC CC CC CC CC CC CC CC CC CC CC ................
00411610 CC CC CC CC CC CC CC CC CC CC CC CC CC CC CC CC ................
00411620 CC CC CC CC CC CC CC CC CC CC CC CC CC CC CC CC ................
00411630 CC CC CC CC CC CC CC CC CC CC CC CC CC CC CC CC ................
00411640 CC CC CC CC CC CC CC CC CC CC CC CC CC CC CC CC ................
00411650 CC CC CC CC CC CC CC CC CC CC CC CC CC CC CC CC ................
00411660 CC CC CC CC CC CC CC CC CC CC CC CC CC CC CC CC ................
00411670 CC CC CC CC CC CC CC CC CC CC CC CC CC CC CC CC ................
00411680 CC CC CC CC CC CC CC CC CC CC CC CC CC CC CC CC ................
00411690 CC CC CC CC CC CC CC CC CC CC CC CC CC CC CC CC ................
004116A0 CC CC CC CC CC CC CC CC CC CC CC CC CC CC CC CC ................
004116B0 CC CC CC CC CC CC CC CC CC CC CC CC CC CC CC CC ................
004116C0 CC CC CC CC CC CC CC CC CC CC CC CC CC CC CC CC ................
004116D0 CC CC CC CC CC CC CC CC CC CC CC CC CC CC CC CC ................
004116E0 CC CC CC CC CC CC CC CC CC CC CC CC CC CC CC CC ................
004116F0 CC CC CC CC CC CC CC CC CC CC CC CC CC CC CC CC ................
00411700 CC CC CC CC CC CC CC CC CC CC CC CC CC CC CC CC ................
00411710 CC CC CC CC CC CC CC CC CC CC CC CC CC CC CC CC ................
00411720 CC CC CC CC CC CC CC CC CC CC CC CC CC CC CC CC ................
00411730 CC CC CC CC CC CC CC CC CC CC CC CC CC CC CC CC ................
00411740 CC CC CC CC CC CC CC CC CC CC CC CC CC CC CC CC ................
00411750 CC CC CC CC CC CC CC CC CC CC CC CC CC CC CC CC ................
00411760 CC CC CC CC CC CC CC CC CC CC CC CC CC CC CC CC ................
00411770 CC CC CC CC CC CC CC CC CC CC CC CC CC CC CC CC ................
00411780 CC CC CC CC CC CC CC CC CC CC CC CC CC CC CC CC ................
00411790 CC CC CC CC CC CC CC CC CC CC CC CC CC CC CC CC ................
004117A0 CC CC CC CC CC CC CC CC CC CC CC CC CC CC CC CC ................
004117B0 CC CC CC CC CC CC CC CC CC CC CC CC CC CC CC CC ................
004117C0 CC CC CC CC CC CC CC CC CC CC CC CC CC CC CC CC ................
004117D0 CC CC CC CC CC CC CC CC CC CC CC CC CC CC CC CC ................
004117E0 CC CC CC CC CC CC CC CC CC CC CC CC CC CC CC CC ................
004117F0 CC CC CC CC CC CC CC CC CC CC CC CC CC CC CC CC ................
00411800 CC CC CC CC CC CC CC CC CC CC CC CC CC CC CC CC ................
00411810 CC CC CC CC CC CC CC CC CC CC CC CC CC CC CC CC ................
00411820 CC CC CC CC CC CC CC CC CC CC CC CC CC CC CC CC ................
00411830 CC CC CC CC CC CC CC CC CC CC CC CC CC CC CC CC ................
00411840 CC CC CC CC CC CC CC CC CC CC CC CC CC CC CC CC ................
00411850 CC CC CC CC CC CC CC CC CC CC CC CC CC CC CC CC ................
00411860 CC CC CC CC CC CC CC CC CC CC CC CC CC CC CC CC ................
00411870 CC CC CC CC CC CC CC CC CC CC CC CC CC CC CC CC ................
00411880 CC CC CC CC CC CC CC CC CC CC CC CC CC CC CC CC ................
00411890 CC CC CC CC CC CC CC CC CC CC CC CC CC CC CC CC ................
004118A0 CC CC CC CC CC CC CC CC CC CC CC CC CC CC CC CC ................
004118B0 CC CC CC CC CC CC CC CC CC CC CC CC CC CC CC CC ................
004118C0 CC CC CC CC CC CC CC CC CC CC CC CC CC CC CC CC ................
004118D0 CC CC CC CC CC CC CC CC CC CC CC CC CC CC CC CC ................
004118E0 CC CC CC CC CC CC CC CC CC CC CC CC CC CC CC CC ................
004118F0 CC CC CC CC CC CC CC CC CC CC CC CC CC CC CC CC ................
00411900 CC CC CC CC CC CC CC CC CC CC CC CC CC CC CC CC ................
00411910 CC CC CC CC CC CC CC CC CC CC CC CC CC CC CC CC ................
00411920 CC CC CC CC CC CC CC CC CC CC CC CC CC CC CC CC ................
00411930 CC CC CC CC CC CC CC CC CC CC CC CC CC CC CC CC ................
00411940 CC CC CC CC CC CC CC CC CC CC CC CC CC CC CC CC ................
00411950 CC CC CC CC CC CC CC CC CC CC CC CC CC CC CC CC ................
00411960 CC CC CC CC CC CC CC CC CC CC CC CC CC CC CC CC ................
00411970 CC CC CC CC CC CC CC CC CC CC CC CC CC CC CC CC ................
00411980 CC CC CC CC CC CC CC CC CC CC CC CC CC CC CC CC ................
00411990 CC CC CC CC CC CC CC CC CC CC CC CC CC CC CC CC ................
004119A0 CC CC CC CC CC CC CC CC CC CC CC CC CC CC CC CC ................
004119B0 CC CC CC CC CC CC CC CC CC CC CC CC CC CC CC CC ................
004119C0 CC CC CC CC FF 25 80 C0 41 00 CC CC CC CC CC CC .....%..A.......
004119D0 CC CC CC CC CC CC CC CC CC CC CC CC CC CC CC CC ................
004119E0 CC CC CC CC CC CC CC CC CC CC CC CC CC CC CC CC ................
004119F0 CC CC CC CC CC CC CC CC CC CC CC CC CC CC CC CC ................
00411A00 CC CC CC CC CC CC CC CC CC CC CC CC CC CC CC CC ................
00411A10 CC CC CC CC CC CC CC CC CC CC CC CC CC CC CC CC ................
00411A20 CC CC CC CC CC CC CC CC CC CC CC CC CC CC CC CC ................
00411A30 55 8B EC 5D C3 CC CC CC CC CC CC CC CC CC CC CC U..]............
00411A40 CC CC CC CC CC CC CC CC CC CC CC CC CC CC CC CC ................
00411A50 CC CC CC CC CC CC CC CC CC CC CC CC CC CC CC CC ................
00411A60 CC CC CC CC CC CC CC CC CC CC CC CC CC CC CC CC ................
00411A70 CC CC CC CC CC CC CC CC CC CC CC CC CC CC CC CC ................
00411A80 CC CC CC CC CC CC CC CC CC CC CC CC CC CC CC CC ................

l00411A90:
	push	ebp
	mov	ebp,esp
	sub	esp,000001A8
	push	ebx
	push	esi
	push	edi
	lea	edi,[ebp-000001A8]
	mov	ecx,0000006A
	mov	eax,CCCCCCCC

l00411AAC:
	rep stosd

l00411AAE:
	mov	eax,[0041B004]
	xor	eax,ebp
	mov	[ebp-04],eax
	mov	ecx,0041D049
	call	00411285
	mov	dword ptr [ebp-0C],00418B30
	mov	dword ptr [ebp-18],00000320
	mov	dword ptr [ebp-24],000002BC
	mov	byte ptr [ebp-2D],00
	mov	esi,esp
	push	18
	call	dword ptr [0041C1E0]
	add	esp,04
	cmp	esi,esp
	call	0041128F
	mov	[ebp-7C],eax
	mov	eax,00000190
	mov	ecx,[ebp-7C]
	mov	[ecx+06],ax
	mov	eax,000001F4
	mov	ecx,[ebp-7C]
	mov	[ecx+08],ax
	mov	eax,[ebp-7C]
	movzx	ecx,word ptr [eax+08]
	add	ecx,14
	mov	edx,[ebp-7C]
	mov	[edx],ecx
	xor	ecx,ecx
	mov	edx,[ebp-7C]
	mov	eax,[edx]
	mov	edx,00000008
	mul	edx
	seto	cl
	neg	ecx
	or	ecx,eax
	mov	esi,esp
	push	ecx
	call	dword ptr [0041C1E0]
	add	esp,04
	cmp	esi,esp
	call	0041128F
	mov	ecx,[ebp-7C]
	mov	[ecx+0C],eax
	mov	eax,[ebp-7C]
	mov	byte ptr [eax+04],00
	mov	eax,[ebp-7C]
	mov	byte ptr [eax+05],00
	mov	eax,000003FF
	mov	ecx,[ebp-7C]
	mov	[ecx+14],ax
	push	20
	call	00411140
	add	esp,04
	push	24
	mov	eax,[ebp-24]
	push	eax
	mov	ecx,[ebp-18]
	push	ecx
	push	1FFF0000
	push	1FFF0000
	mov	edx,[ebp-0C]
	push	edx
	call	004112BC
	add	esp,18
	mov	[ebp-00000088],eax
	push	06
	push	FF
	mov	eax,[ebp-00000088]
	push	eax
	call	004110EB
	add	esp,0C
	mov	[ebp-00000094],eax
	mov	esi,esp
	push	04
	call	dword ptr [0041C1E0]
	add	esp,04
	cmp	esi,esp
	call	0041128F
	mov	[ebp-000000A0],eax
	mov	eax,[ebp-00000088]
	push	eax
	call	0041108C
	add	esp,04
	mov	ecx,[ebp-000000A0]
	mov	[ecx],eax
	mov	esi,esp
	push	00
	push	00
	push	03
	push	00
	push	00
	push	80000000
	push	00418B44
	call	dword ptr [0041C034]
	cmp	esi,esp
	call	0041128F
	mov	ecx,[ebp-7C]
	mov	[ecx+10],eax
	mov	eax,[ebp-7C]
	cmp	dword ptr [eax+10],FF
	jnz	00411C17

l00411C0D:
	mov	eax,00000001
	jmp	00411E58

l00411C17:
	xor	eax,eax
	mov	[ebp-000000C4],eax
	mov	[ebp-000000C0],eax
	mov	[ebp-000000BC],eax
	mov	[ebp-000000B8],eax
	mov	[ebp-000000B4],eax
	mov	[ebp-000000B0],eax
	mov	[ebp-000000AC],eax
	mov	dword ptr [ebp-000000C4],0000001C
	mov	esi,esp
	lea	eax,[ebp-000000C4]
	push	eax
	mov	ecx,[ebp-7C]
	mov	edx,[ecx+10]
	push	edx
	call	dword ptr [0041C03C]
	cmp	esi,esp
	call	0041128F
	mov	dword ptr [ebp-000000C0],0003E800
	mov	byte ptr [ebp-000000B2],08
	mov	byte ptr [ebp-000000B0],00
	mov	byte ptr [ebp-000000B1],00
	mov	esi,esp
	lea	eax,[ebp-000000C4]
	push	eax
	mov	ecx,[ebp-7C]
	mov	edx,[ecx+10]
	push	edx
	call	dword ptr [0041C040]
	cmp	esi,esp
	call	0041128F
	xor	eax,eax
	mov	[ebp-000000E0],eax
	mov	[ebp-000000DC],eax
	mov	[ebp-000000D8],eax
	mov	[ebp-000000D4],eax
	mov	[ebp-000000D0],eax
	mov	dword ptr [ebp-000000E0],00000032
	mov	dword ptr [ebp-000000D8],00000032
	mov	dword ptr [ebp-000000DC],0000000A
	mov	dword ptr [ebp-000000D0],00000032
	mov	dword ptr [ebp-000000D4],0000000A
	mov	esi,esp
	lea	eax,[ebp-000000E0]
	push	eax
	mov	ecx,[ebp-7C]
	mov	edx,[ecx+10]
	push	edx
	call	dword ptr [0041C044]
	cmp	esi,esp
	call	0041128F
	test	eax,eax
	jnz	00411D23

l00411D19:
	mov	eax,00000004
	jmp	00411E58

l00411D23:
	movzx	eax,byte ptr [ebp-2D]
	test	eax,eax
	jnz	00411E1D

l00411D2F:
	lea	eax,[ebp-70]
	push	eax
	call	00411203
	add	esp,04
	test	eax,eax
	jz	00411D8A

l00411D3F:
	mov	eax,[ebp-70]
	mov	[ebp-000001A8],eax
	cmp	dword ptr [ebp-000001A8],00000100
	jz	00411D62

l00411D54:
	cmp	dword ptr [ebp-000001A8],00000200
	jz	00411D68

l00411D60:
	jmp	00411D88

l00411D62:
	mov	byte ptr [ebp-2D],01
	jmp	00411D88

l00411D68:
	mov	al,[ebp-64]
	mov	[ebp-000001A8],al
	cmp	byte ptr [ebp-000001A8],06
	jz	00411D7C

l00411D7A:
	jmp	00411D88

l00411D7C:
	mov	eax,[ebp-60]
	mov	[ebp-18],eax
	mov	eax,[ebp-5C]
	mov	[ebp-24],eax

l00411D88:
	jmp	00411D2F

l00411D8A:
	mov	eax,[ebp-7C]
	movzx	ecx,byte ptr [eax+04]
	test	ecx,ecx
	jz	00411DE9

l00411D95:
	push	000000FF
	push	000000FF
	push	000000FF
	push	000000FF
	mov	eax,[ebp-00000094]
	push	eax
	call	00411276
	add	esp,14
	mov	eax,[ebp-00000094]
	push	eax
	call	0041105A
	add	esp,04
	mov	eax,[ebp-00000094]
	push	eax
	mov	ecx,[ebp-7C]
	push	ecx
	call	00411172
	add	esp,08
	mov	eax,[ebp-00000094]
	push	eax
	call	00411127
	add	esp,04

l00411DE9:
	mov	eax,[ebp-7C]
	movzx	ecx,byte ptr [eax+05]
	test	ecx,ecx
	jnz	00411E18

l00411DF4:
	mov	esi,esp
	mov	eax,[ebp-7C]
	push	eax
	push	00
	push	004110F5
	call	dword ptr [0041C1D8]
	add	esp,0C
	cmp	esi,esp
	call	0041128F
	mov	eax,[ebp-7C]
	mov	byte ptr [eax+05],01

l00411E18:
	jmp	00411D23

l00411E1D:
	mov	eax,[ebp-7C]
	movzx	ecx,byte ptr [eax+05]
	test	ecx,ecx
	jz	00411E3B

l00411E28:
	mov	esi,esp
	push	0A
	call	dword ptr [0041C080]
	cmp	esi,esp
	call	0041128F
	jmp	00411E1D

l00411E3B:
	call	004111D6
	mov	esi,esp
	mov	eax,[ebp-7C]
	mov	ecx,[eax+10]
	push	ecx
	call	dword ptr [0041C038]
	cmp	esi,esp
	call	0041128F
	xor	eax,eax

l00411E58:
	push	edx
	mov	ecx,ebp
	push	eax
	lea	edx,[00411E88]
	call	004112B7
	pop	eax
	pop	edx
	pop	edi
	pop	esi
	pop	ebx
	mov	ecx,[ebp-04]
	xor	ecx,ebp
	call	00411249
	add	esp,000001A8
	cmp	ebp,esp
	call	0041128F
	mov	esp,ebp
	pop	ebp
	ret
00411E87                      90 03 00 00 00 90 1E 41 00        .......A.
00411E90 90 FF FF FF 38 00 00 00 CD 1E 41 00 3C FF FF FF ....8.....A.<...
00411EA0 1C 00 00 00 BD 1E 41 00 20 FF FF FF 14 00 00 00 ......A. .......
00411EB0 B4 1E 41 00 74 69 6D 65 6F 75 74 73 00 64 63 62 ..A.timeouts.dcb
00411EC0 53 65 72 69 61 6C 50 61 72 61 6D 73 00 65 76 65 SerialParams.eve
00411ED0 6E 74 00 CC CC CC CC CC CC CC CC CC CC CC CC CC nt..............
00411EE0 CC CC CC CC CC CC CC CC CC CC CC CC CC CC CC CC ................
00411EF0 CC CC CC CC CC CC CC CC CC CC CC CC CC CC CC CC ................
00411F00 CC CC CC CC CC CC CC CC CC CC CC CC CC CC CC CC ................
00411F10 CC CC CC CC CC CC CC CC CC CC CC CC CC CC CC CC ................
00411F20 CC CC CC CC CC CC CC CC CC CC CC CC CC CC CC CC ................
00411F30 CC CC CC CC CC CC CC CC CC CC CC CC CC CC CC CC ................
00411F40 CC CC CC CC CC CC CC CC CC CC CC CC CC CC CC CC ................

l00411F50:
	push	ebp
	mov	ebp,esp
	sub	esp,00000108
	push	ebx
	push	esi
	push	edi
	lea	edi,[ebp-00000108]
	mov	ecx,00000042
	mov	eax,CCCCCCCC

l00411F6C:
	rep stosd

l00411F6E:
	mov	ecx,0041D02F
	call	00411285
	mov	eax,[ebp+08]
	movzx	eax,word ptr [eax+06]
	cdq
	mov	ecx,0000000A
	idiv	ecx
	mov	[ebp-20],ax
	mov	eax,[ebp+08]
	movzx	eax,word ptr [eax+06]
	cdq
	mov	ecx,00000064
	idiv	ecx
	mov	[ebp-2C],ax
	mov	eax,[ebp+08]
	movzx	eax,word ptr [eax+08]
	cdq
	mov	ecx,0000000A
	idiv	ecx
	mov	[ebp-38],ax
	mov	eax,[ebp+08]
	movzx	eax,word ptr [eax+08]
	cdq
	mov	ecx,00000064
	idiv	ecx
	mov	[ebp-44],ax
	push	000000FF
	push	000000DC
	push	000000DC
	push	000000DC
	mov	eax,[ebp+0C]
	push	eax
	call	00411276
	add	esp,14
	mov	eax,[ebp+08]
	movzx	ecx,word ptr [eax+06]
	cvtsi2ss	xmm0,ecx
	movss	dword ptr [ebp-08],xmm0
	jmp	0041200C

l00411FF6:
	movzx	eax,word ptr [ebp-2C]
	cvtsi2ss	xmm0,eax
	movss	xmm1,dword ptr [ebp-08]
	subss	xmm1,xmm0
	movss	dword ptr [ebp-08],xmm1

l0041200C:
	movss	xmm0,dword ptr [ebp-08]
	comiss	xmm0,dword ptr [00418B40]
	jc	0041203E

l0041201A:
	cvttss2si	eax,[ebp-08]
	push	eax
	mov	ecx,[ebp+08]
	movzx	edx,word ptr [ecx+08]
	push	edx
	cvttss2si	eax,[ebp-08]
	push	eax
	push	00
	mov	ecx,[ebp+0C]
	push	ecx
	call	00411212
	add	esp,14
	jmp	00411FF6

l0041203E:
	mov	dword ptr [ebp-14],00000000
	jmp	00412051

l00412047:
	movzx	eax,word ptr [ebp-44]
	add	eax,[ebp-14]
	mov	[ebp-14],eax

l00412051:
	mov	eax,[ebp+08]
	movzx	ecx,word ptr [eax+08]
	cmp	[ebp-14],ecx
	jg	0041207D

l0041205D:
	mov	eax,[ebp+08]
	movzx	ecx,word ptr [eax+06]
	push	ecx
	mov	edx,[ebp-14]
	push	edx
	push	00
	mov	eax,[ebp-14]
	push	eax
	mov	ecx,[ebp+0C]
	push	ecx
	call	00411212
	add	esp,14
	jmp	00412047

l0041207D:
	push	000000FF
	push	000000C8
	push	000000C8
	push	000000C8
	mov	eax,[ebp+0C]
	push	eax
	call	00411276
	add	esp,14
	mov	eax,[ebp+08]
	movzx	ecx,word ptr [eax+06]
	cvtsi2ss	xmm0,ecx
	movss	dword ptr [ebp-08],xmm0
	jmp	004120C5

l004120AF:
	movzx	eax,word ptr [ebp-20]
	cvtsi2ss	xmm0,eax
	movss	xmm1,dword ptr [ebp-08]
	subss	xmm1,xmm0
	movss	dword ptr [ebp-08],xmm1

l004120C5:
	movss	xmm0,dword ptr [ebp-08]
	comiss	xmm0,dword ptr [00418B40]
	jc	004120F7

l004120D3:
	cvttss2si	eax,[ebp-08]
	push	eax
	mov	ecx,[ebp+08]
	movzx	edx,word ptr [ecx+08]
	push	edx
	cvttss2si	eax,[ebp-08]
	push	eax
	push	00
	mov	ecx,[ebp+0C]
	push	ecx
	call	00411212
	add	esp,14
	jmp	004120AF

l004120F7:
	mov	dword ptr [ebp-14],00000000
	jmp	0041210A

l00412100:
	movzx	eax,word ptr [ebp-38]
	add	eax,[ebp-14]
	mov	[ebp-14],eax

l0041210A:
	mov	eax,[ebp+08]
	movzx	ecx,word ptr [eax+08]
	cmp	[ebp-14],ecx
	jg	00412136

l00412116:
	mov	eax,[ebp+08]
	movzx	ecx,word ptr [eax+06]
	push	ecx
	mov	edx,[ebp-14]
	push	edx
	push	00
	mov	eax,[ebp-14]
	push	eax
	mov	ecx,[ebp+0C]
	push	ecx
	call	00411212
	add	esp,14
	jmp	00412100

l00412136:
	push	000000FF
	push	00000096
	push	00000096
	push	00000096
	mov	eax,[ebp+0C]
	push	eax
	call	00411276
	add	esp,14
	mov	eax,[ebp+08]
	movzx	eax,word ptr [eax+06]
	cdq
	sub	eax,edx
	sar	eax,01
	push	eax
	mov	ecx,[ebp+08]
	movzx	edx,word ptr [ecx+08]
	push	edx
	mov	eax,[ebp+08]
	movzx	eax,word ptr [eax+06]
	cdq
	sub	eax,edx
	sar	eax,01
	push	eax
	push	00
	mov	ecx,[ebp+0C]
	push	ecx
	call	00411212
	add	esp,14
	mov	eax,[ebp+08]
	movzx	ecx,word ptr [eax+06]
	push	ecx
	mov	edx,[ebp+08]
	movzx	eax,word ptr [edx+08]
	cdq
	sub	eax,edx
	sar	eax,01
	push	eax
	push	00
	mov	eax,[ebp+08]
	movzx	eax,word ptr [eax+08]
	cdq
	sub	eax,edx
	sar	eax,01
	push	eax
	mov	ecx,[ebp+0C]
	push	ecx
	call	00411212
	add	esp,14
	push	000000FF
	push	000000FF
	push	00
	push	00
	mov	eax,[ebp+0C]
	push	eax
	call	00411276
	add	esp,14
	mov	eax,[ebp+08]
	movzx	ecx,word ptr [eax+08]
	push	ecx
	mov	edx,[ebp+08]
	mov	eax,[edx+0C]
	push	eax
	mov	ecx,[ebp+0C]
	push	ecx
	call	004113E3
	add	esp,0C
	mov	eax,[ebp+08]
	mov	byte ptr [eax+04],00
	pop	edi
	pop	esi
	pop	ebx
	add	esp,00000108
	cmp	ebp,esp
	call	0041128F
	mov	esp,ebp
	pop	ebp
	ret
00412206                   CC CC CC CC CC CC CC CC CC CC       ..........
00412210 CC CC CC CC CC CC CC CC CC CC CC CC CC CC CC CC ................
00412220 CC CC CC CC CC CC CC CC CC CC CC CC CC CC CC CC ................
00412230 CC CC CC CC CC CC CC CC CC CC CC CC CC CC CC CC ................
00412240 CC CC CC CC CC CC CC CC CC CC CC CC CC CC CC CC ................
00412250 CC CC CC CC CC CC CC CC CC CC CC CC CC CC CC CC ................
00412260 CC CC CC CC CC CC CC CC CC CC CC CC CC CC CC CC ................
00412270 CC CC CC CC CC CC CC CC CC CC CC CC CC CC CC CC ................
00412280 CC CC CC CC CC CC CC CC CC CC CC CC CC CC CC CC ................
00412290 CC CC CC CC CC CC CC CC CC CC CC CC CC CC CC CC ................
004122A0 CC CC CC CC CC CC CC CC CC CC CC CC CC CC CC CC ................
004122B0 CC CC CC CC CC CC CC CC CC CC CC CC CC CC CC CC ................
004122C0 CC CC CC CC CC CC CC CC CC CC CC CC CC CC CC CC ................
004122D0 CC FF 25 F0 C0 41 00 FF 25 EC C0 41 00 FF 25 E8 ..%..A..%..A..%.
004122E0 C0 41 00 FF 25 E4 C0 41 00 FF 25 E0 C0 41 00 FF .A..%..A..%..A..
004122F0 25 DC C0 41 00 FF 25 D8 C0 41 00 FF 25 D4 C0 41 %..A..%..A..%..A
00412300 00 FF 25 D0 C0 41 00 FF 25 CC C0 41 00 FF 25 C8 ..%..A..%..A..%.
00412310 C0 41 00 FF 25 30 C0 41 00 FF 25 34 C0 41 00 FF .A..%0.A..%4.A..
00412320 25 38 C0 41 00 FF 25 3C C0 41 00 FF 25 40 C0 41 %8.A..%<.A..%@.A
00412330 00 FF 25 44 C0 41 00 CC CC CC CC CC CC CC CC CC ..%D.A..........
00412340 55 8B EC 53 56 8B F1 8B DA 85 F6 74 1F 85 DB 74 U..SV......t...t
00412350 1B 8B 55 08 85 D2 74 14 57 B0 CC 8B FE 8B CB F3 ..U...t.W.......
00412360 AA 8B 02 89 46 04 89 5E 0C 89 32 5F 5E 5B 5D C2 ....F..^..2_^[].
00412370 04 00 CC CC CC CC CC CC CC CC CC CC CC CC CC CC ................
00412380 55 8B EC 83 EC 08 89 4D FC 56 8B 75 08 57 85 D2 U......M.V.u.W..
00412390 74 4F 33 FF 39 3A 7E 49 53 33 DB 8B F2 8D 49 00 tO3.9:~IS3....I.
004123A0 8B 4E 04 8B 45 FC 8B 14 19 81 7C 02 FC CC CC CC .N..E.....|.....
004123B0 CC 75 12 8B 44 19 04 03 C2 8B 55 FC 81 3C 10 CC .u..D.....U..<..
004123C0 CC CC CC 74 10 FF 74 19 08 8B 45 04 50 E8 18 EE ...t..t...E.P...
004123D0 FF FF 83 C4 08 47 83 C3 0C 3B 3E 7C C3 8B 75 08 .....G...;>|..u.
004123E0 5B 33 FF 8B C6 85 F6 74 63 8D A4 24 00 00 00 00 [3.....tc..$....
004123F0 8B 40 04 47 85 C0 75 F8 81 3E CC CC CC CC 75 1B .@.G..u..>....u.
00412400 81 7E 14 CC CC CC CC 75 12 81 7E 18 CC CC CC CC .~.....u..~.....
00412410 75 09 81 7E 1C CC CC CC CC 74 0E 8B 45 04 57 56 u..~.....t..E.WV
00412420 50 E8 7F EC FF FF 83 C4 0C 8B 46 0C 81 7C 30 FC P.........F..|0.
00412430 CC CC CC CC 74 0E 8B 45 04 57 56 50 E8 64 EC FF ....t..E.WVP.d..
00412440 FF 83 C4 0C 8B 76 04 4F 85 F6 75 AC 5F 5E 8B E5 .....v.O..u._^..
00412450 5D C2 04 00 CC CC CC CC CC CC CC CC CC CC CC CC ]...............
00412460 CC CC CC CC CC CC CC CC CC CC CC CC CC CC CC CC ................
00412470 CC CC CC CC CC CC CC CC CC CC CC CC CC CC CC CC ................
00412480 CC CC CC CC CC CC CC CC CC CC CC CC CC CC CC CC ................

;; fn00412490: 00412490
;;   Called from:
;;     004112B7 (in fn004112B7)
fn00412490 proc
	push	ebp
	mov	ebp,esp
	push	ecx
	push	ebx
	mov	ebx,edx
	mov	[ebp-04],ecx
	push	esi
	xor	esi,esi
	cmp	[ebx],esi
	jle	004124E2

l004124A1:
	push	edi
	xor	edi,edi

l004124A4:
	mov	ecx,[ebx+04]
	mov	eax,[ebp-04]
	mov	edx,[ecx+edi]
	cmp	dword ptr [edx+eax-04],CCCCCCCC
	jnz	004124C9

l004124B7:
	mov	eax,[ecx+edi+04]
	add	eax,edx
	mov	edx,[ebp-04]
	cmp	dword ptr [eax+edx],CCCCCCCC
	jz	004124D9

l004124C9:
	push	dword ptr [ecx+edi+08]
	mov	eax,[ebp+04]
	push	eax
	call	004111EA
	add	esp,08

l004124D9:
	inc	esi
	add	edi,0C
	cmp	esi,[ebx]
	jl	004124A4

l004124E1:
	pop	edi

l004124E2:
	pop	esi
	pop	ebx
	mov	esp,ebp
	pop	ebp
	ret
004124E8                         CC CC CC CC CC CC CC CC         ........
004124F0 CC CC CC CC CC CC CC CC CC CC CC CC CC CC CC CC ................

;; fn00412500: 00412500
;;   Called from:
;;     0041128F (in fn0041128F)
fn00412500 proc
	repne jnz	00412505

l00412503:
	repne ret

l00412505:
	push	ebp
	mov	ebp,esp
	sub	esp,00
	push	eax
	nop	dword ptr [esp+eax]
	push	edx
	push	ebx
	push	esi
	push	edi
	mov	eax,[ebp+04]
	push	00
	push	eax
	call	004112EE
	add	esp,08
	pop	edi
	pop	esi
	pop	ebx
	pop	edx
	pop	eax
	nop	dword ptr [esp+eax-04]
	mov	esp,ebp
	pop	ebp
	repne ret
00412531    CC CC CC CC CC CC CC CC CC CC CC CC CC CC CC  ...............

;; fn00412540: 00412540
;;   Called from:
;;     00411285 (in fn00411285)
fn00412540 proc
	push	ebp
	mov	ebp,esp
	sub	esp,08
	mov	[ebp-04],ecx
	mov	eax,[ebp-04]
	mov	[ebp-08],eax
	mov	ecx,[ebp-04]
	movzx	edx,byte ptr [ecx]
	test	edx,edx
	jz	00412571

l00412559:
	cmp	dword ptr [0041B5A4],00
	jz	00412571

l00412562:
	call	dword ptr [0041C058]
	cmp	[0041B5A4],eax
	jnz	00412571

l00412570:
	nop

l00412571:
	mov	esp,ebp
	pop	ebp
	ret
00412575                CC CC CC CC CC CC CC CC CC CC CC      ...........
00412580 CC CC CC CC CC CC CC CC CC CC CC CC CC CC CC CC ................

l00412590:
	cmp	ecx,[0041B004]
	repne jnz	0041259B

l00412599:
	repne ret

l0041259B:
	repne jmp	0041100F
004125A1    CC CC CC CC CC CC CC CC CC CC CC CC CC CC CC  ...............
004125B0 B8 3A 12 41 00 C3 CC CC CC CC CC CC CC CC CC CC .:.A............
004125C0 B8 DC 10 41 00 C3 CC CC CC CC CC CC CC CC CC CC ...A............
004125D0 80 3D 48 B1 41 00 00 75 1F 6A 00 6A 01 6A 00 6A .=H.A..u.j.j.j.j
004125E0 00 6A 00 C6 05 48 B1 41 00 01 E8 E1 EC FF FF 50 .j...H.A.......P
004125F0 E8 77 EC FF FF 83 C4 18 C3 CC CC CC CC CC CC CC .w..............
00412600 CC CC CC CC CC CC CC CC CC CC CC CC CC CC CC CC ................
00412610 6A 01 6A 01 6A 00 6A 00 6A 00 E8 B1 EC FF FF 83 j.j.j.j.j.......
00412620 C4 14 C3 CC CC CC CC CC CC CC CC CC CC CC CC CC ................
00412630 51 8D 4C 24 04 2B C8 1B C0 F7 D0 23 C8 8B C4 25 Q.L$.+.....#...%
00412640 00 F0 FF FF 3B C8 F2 72 0B 8B C1 59 94 8B 00 89 ....;..r...Y....
00412650 04 24 F2 C3 2D 00 10 00 00 85 00 EB E7 CC CC CC .$..-...........
00412660 CC CC CC CC CC CC CC CC CC CC CC CC CC CC CC CC ................
00412670 55 8B EC E8 A5 EA FF FF E8 85 EC FF FF E8 EB EA U...............
00412680 FF FF 6A 01 E8 B3 E9 FF FF 83 C4 04 0F B6 C0 85 ..j.............
00412690 C0 75 07 6A 07 E8 C7 EC FF FF DB E2 E8 EA EA FF .u.j............
004126A0 FF 68 2A 13 41 00 E8 DF EB FF FF 83 C4 04 E8 12 .h*.A...........
004126B0 ED FF FF 85 C0 74 07 6A 07 E8 A3 EC FF FF E8 A3 .....t.j........
004126C0 EC FF FF E8 E2 E9 FF FF 85 C0 74 0D 68 84 13 41 ..........t.h..A
004126D0 00 E8 23 EB FF FF 83 C4 04 E8 3B E9 FF FF E8 0D ..#.......;.....
004126E0 EA FF FF E8 F7 EB FF FF E8 76 EA FF FF 50 E8 EB .........v...P..
004126F0 EC FF FF 83 C4 04 E8 36 EA FF FF 0F B6 C8 85 C9 .......6........
00412700 74 05 E8 A1 EB FF FF E8 44 E9 FF FF E8 14 EC FF t.......D.......
00412710 FF 85 C0 74 07 6A 07 E8 45 EC FF FF 33 C0 5D C3 ...t.j..E...3.].
00412720 CC CC CC CC CC CC CC CC CC CC CC CC CC CC CC CC ................
00412730 CC CC CC CC CC CC CC CC CC CC CC CC CC CC CC CC ................
00412740 CC CC CC CC CC CC CC CC CC CC CC CC CC CC CC CC ................
00412750 55 8B EC E8 9A EC FF FF 33 C0 5D C3 CC CC CC CC U.......3.].....
00412760 55 8B EC E8 71 EC FF FF E8 FA EA FF FF 50 E8 68 U...q........P.h
00412770 EA FF FF 83 C4 04 5D C3 CC CC CC CC CC CC CC CC ......].........

;; fn00412780: 00412780
;;   Called from:
;;     00412B13 (in Win32CrtStartup)
fn00412780 proc
	push	ebp
	mov	ebp,esp
	call	00411348
	call	004127A0
	pop	ebp
	ret
0041278F                                              CC                .
00412790 CC CC CC CC CC CC CC CC CC CC CC CC CC CC CC CC ................

;; fn004127A0: 004127A0
;;   Called from:
;;     00412788 (in fn00412780)
fn004127A0 proc
	push	ebp
	mov	ebp,esp
	push	FE
	push	00419F80
	push	00414730
	mov	eax,fs:[00000000]
	push	eax
	add	esp,CC
	push	ebx
	push	esi
	push	edi
	mov	eax,[0041B004]
	xor	[ebp-08],eax
	xor	eax,ebp
	push	eax
	lea	eax,[ebp-10]
	mov	fs:[00000000],eax
	mov	[ebp-18],esp
	push	01
	call	00411154
	add	esp,04
	movzx	eax,al
	test	eax,eax
	jnz	004127EB

l004127E4:
	push	07
	call	00411361

l004127EB:
	mov	byte ptr [ebp-19],00
	mov	dword ptr [ebp-04],00000000
	call	004113FC
	mov	[ebp-1A],al
	cmp	dword ptr [0041B528],01
	jnz	00412810

l00412807:
	push	07
	call	00411361
	jmp	00412871

l00412810:
	cmp	dword ptr [0041B528],00
	jnz	0041286D

l00412819:
	mov	dword ptr [0041B528],00000001
	push	00418618
	push	0041830C
	call	0041107D
	add	esp,08
	test	eax,eax
	jz	0041284F

l00412839:
	mov	dword ptr [ebp-38],000000FF
	mov	dword ptr [ebp-04],FFFFFFFE
	mov	eax,[ebp-38]
	jmp	004129A2

l0041284F:
	push	00418208
	push	00418000
	call	00411221
	add	esp,08
	mov	dword ptr [0041B528],00000002
	jmp	00412871

l0041286D:
	mov	byte ptr [ebp-19],01

l00412871:
	movzx	ecx,byte ptr [ebp-1A]
	push	ecx
	call	004110AF
	add	esp,04
	call	004111E0
	mov	[ebp-20],eax
	mov	edx,[ebp-20]
	cmp	dword ptr [edx],00
	jz	004128C1

l0041288E:
	mov	eax,[ebp-20]
	push	eax
	call	00411217
	add	esp,04
	movzx	ecx,al
	test	ecx,ecx
	jz	004128C1

l004128A1:
	mov	edx,[ebp-20]
	mov	eax,[edx]
	mov	[ebp-3C],eax
	push	00
	push	02
	push	00
	mov	ecx,[ebp-3C]
	mov	[ebp-28],ecx
	mov	ecx,[ebp-28]
	call	dword ptr [0041E000]
	call	dword ptr [ebp-28]

l004128C1:
	call	004112B2
	mov	[ebp-24],eax
	mov	edx,[ebp-24]
	cmp	dword ptr [edx],00
	jz	004128F2

l004128D1:
	mov	eax,[ebp-24]
	push	eax
	call	00411217
	add	esp,04
	movzx	ecx,al
	test	ecx,ecx
	jz	004128F2

l004128E4:
	mov	edx,[ebp-24]
	mov	eax,[edx]
	push	eax
	call	004110C8
	add	esp,04

l004128F2:
	call	00412A70
	mov	[ebp-2C],eax
	call	00411230
	movzx	ecx,al
	test	ecx,ecx
	jnz	0041290F

l00412906:
	mov	edx,[ebp-2C]
	push	edx
	call	004112DA

l0041290F:
	movzx	eax,byte ptr [ebp-19]
	test	eax,eax
	jnz	0041291C

l00412917:
	call	00411028

l0041291C:
	push	00
	push	01
	call	004112C6
	add	esp,08
	mov	ecx,[ebp-2C]
	mov	[ebp-40],ecx
	mov	dword ptr [ebp-04],FFFFFFFE
	mov	eax,[ebp-40]
	jmp	004129A2
0041293A                               C7 45 FC FE FF FF           .E....
00412940 FF EB 5F 8B 55 EC 8B 02 8B 08 89 4D D0 8B 55 EC .._.U......M..U.
00412950 52 8B 45 D0 50 E8 39 EA FF FF 83 C4 08 C3 8B 65 R.E.P.9........e
00412960 E8 8B 4D D0 89 4D CC E8 C4 E8 FF FF 0F B6 D0 85 ..M..M..........
00412970 D2 75 09 8B 45 CC 50 E8 14 E8 FF FF 0F B6 4D E7 .u..E.P.......M.
00412980 85 C9 75 05 E8 8A E7 FF FF 8B 55 CC 89 55 BC C7 ..u.......U..U..
00412990 45 FC FE FF FF FF 8B 45 BC EB 07 C7 45 FC FE FF E......E....E...
004129A0 FF FF                                           ..             

l004129A2:
	mov	ecx,[ebp-10]
	mov	fs:[00000000],ecx
	pop	ecx
	pop	edi
	pop	esi
	pop	ebx
	mov	esp,ebp
	pop	ebp
	ret
004129B4             CC CC CC CC CC CC CC CC CC CC CC CC     ............
004129C0 CC CC CC CC CC CC CC CC CC CC CC CC CC CC CC CC ................
004129D0 CC CC CC CC CC CC CC CC CC CC CC CC CC CC CC CC ................
004129E0 CC CC CC CC CC CC CC CC CC CC CC CC CC CC CC CC ................
004129F0 CC CC CC CC CC CC CC CC CC CC CC CC CC CC CC CC ................
00412A00 CC CC CC CC CC CC CC CC CC CC CC CC CC CC CC CC ................
00412A10 CC CC CC CC CC CC CC CC CC CC CC CC CC CC CC CC ................
00412A20 CC CC CC CC CC CC CC CC CC CC CC CC CC CC CC CC ................
00412A30 CC CC CC CC CC CC CC CC CC CC CC CC CC CC CC CC ................
00412A40 55 8B EC E8 28 E9 FF FF 50 E8 AA E8 FF FF 83 C4 U...(...P.......
00412A50 04 5D C3 CC CC CC CC CC CC CC CC CC CC CC CC CC .]..............
00412A60 55 8B EC E8 30 E9 FF FF 5D C3 CC CC CC CC CC CC U...0...].......

;; fn00412A70: 00412A70
;;   Called from:
;;     004128F2 (in fn004127A0)
fn00412A70 proc
	push	ebp
	mov	ebp,esp
	sub	esp,08
	call	0041127B
	movzx	eax,ax
	mov	[ebp-04],eax
	call	004113B1
	mov	[ebp-08],eax
	mov	ecx,[ebp-04]
	push	ecx
	mov	edx,[ebp-08]
	push	edx
	push	00
	push	00400000
	call	00411064
	mov	esp,ebp
	pop	ebp
	ret
00412AA1    CC CC CC CC CC CC CC CC CC CC CC CC CC CC CC  ...............
00412AB0 55 8B EC 6A 02 E8 E3 E8 FF FF 83 C4 04 5D C3 CC U..j.........]..
00412AC0 CC CC CC CC CC CC CC CC CC CC CC CC CC CC CC CC ................
00412AD0 55 8B EC 51 E8 7C E5 FF FF 89 45 FC E8 CD E6 FF U..Q.|....E.....
00412AE0 FF 8B 4D FC 89 08 8B E5 5D C3 CC CC CC CC CC CC ..M.....].......
00412AF0 55 8B EC E8 49 E5 FF FF 50 E8 22 E8 FF FF 83 C4 U...I...P.".....
00412B00 04 5D C3 CC CC CC CC CC CC CC CC CC CC CC CC CC .]..............

l00412B10:
	push	ebp
	mov	ebp,esp
	call	00412780
	pop	ebp
	ret
00412B1A                               CC CC CC CC CC CC           ......

;; fn00412B20: 00412B20
;;   Called from:
;;     00412F8A (in fn00412EF0)
fn00412B20 proc
	push	ebp
	mov	ebp,esp
	sub	esp,1C
	mov	eax,[ebp+08]
	mov	[ebp-18],eax
	lea	eax,[ebp-01]
	mov	[ebp-14],eax
	lea	eax,[ebp-1C]
	push	eax
	mov	byte ptr [ebp-01],00
	mov	dword ptr [ebp-1C],00001001
	call	00413170
	add	esp,04
	cmp	byte ptr [ebp-01],00
	setnz	al
	mov	esp,ebp
	pop	ebp
	ret
00412B54             CC CC CC CC CC CC CC CC CC CC CC CC     ............
00412B60 CC CC CC CC CC CC CC CC CC CC CC CC CC CC CC CC ................

;; fn00412B70: 00412B70
;;   Called from:
;;     00412FA6 (in fn00412EF0)
fn00412B70 proc
	push	ebp
	mov	ebp,esp
	sub	esp,1C
	mov	eax,[ebp+08]
	mov	[ebp-18],eax
	mov	eax,[ebp+0C]
	mov	[ebp-14],eax
	mov	eax,[ebp+10]
	mov	[ebp-10],eax
	lea	eax,[ebp-01]
	mov	[ebp-0C],eax
	mov	eax,[ebp+14]
	mov	[ebp-08],eax
	lea	eax,[ebp-1C]
	push	eax
	mov	byte ptr [ebp-01],00
	mov	dword ptr [ebp-1C],00001002
	call	00413170
	add	esp,04
	cmp	byte ptr [ebp-01],00
	setnz	al
	mov	esp,ebp
	pop	ebp
	ret
00412BB6                   CC CC CC CC CC CC CC CC CC CC       ..........
00412BC0 CC CC CC CC CC CC CC CC CC CC CC CC CC CC CC CC ................
00412BD0 55 8B EC 81 EC 44 01 00 00 A1 04 B0 41 00 33 C5 U....D......A.3.
00412BE0 89 45 FC 8B 45 08 53 8B 5D 0C 57 8B 3D 24 B0 41 .E..E.S.].W.=$.A
00412BF0 00 89 85 BC FE FF FF 83 FF FF 0F 84 A6 00 00 00 ................
00412C00 85 DB 75 21 68 D8 90 41 00 6A 04 57 50 E8 DE 02 ..u!h..A.j.WP...
00412C10 00 00 83 C4 10 5F 5B 8B 4D FC 33 CD E8 28 E6 FF ....._[.M.3..(..
00412C20 FF 8B E5 5D C3 8B 43 0C 56 83 E8 24 8D 73 20 50 ...]..C.V..$.s P
00412C30 56 8D 45 B4 50 8D 45 E8 50 E8 02 02 00 00 68 30 V.E.P.E.P.....h0
00412C40 91 41 00 8D 45 B4 50 68 34 91 41 00 8D 45 E8 50 .A..E.Ph4.A..E.P
00412C50 8B 43 0C 68 38 91 41 00 FF 75 10 83 E8 24 68 44 .C.h8.A..u...$hD
00412C60 91 41 00 50 68 78 91 41 00 56 68 84 91 41 00 68 .A.Phx.A.Vh..A.h
00412C70 98 91 41 00 68 F0 91 41 00 8D 85 C0 FE FF FF 68 ..A.h..A.......h
00412C80 F4 00 00 00 50 E8 8C E6 FF FF 83 C4 4C 8D 85 C0 ....P.......L...
00412C90 FE FF FF 50 6A 04 57 FF B5 BC FE FF FF E8 4E 02 ...Pj.W.......N.
00412CA0 00 00 83 C4 10 5E 8B 4D FC 5F 33 CD 5B E8 97 E5 .....^.M._3.[...
00412CB0 FF FF 8B E5 5D C3 CC CC CC CC CC CC CC CC CC CC ....]...........
00412CC0 CC CC CC CC CC CC CC CC CC CC CC CC CC CC CC CC ................
00412CD0 CC CC CC CC CC CC CC CC CC CC CC CC CC CC CC CC ................
00412CE0 CC CC CC CC CC CC CC CC CC CC CC CC CC CC CC CC ................

;; fn00412CF0: 00412CF0
;;   Called from:
;;     004112EE (in fn004112EE)
fn00412CF0 proc
	push	ebp
	mov	ebp,esp
	mov	eax,[ebp+0C]
	cmp	eax,04
	ja	00412D1E

l00412CFB:
	mov	ecx,[0041B014+eax*4]
	mov	edx,[00418B94+eax*4]
	cmp	ecx,FF
	jz	00412D3C

l00412D0E:
	push	edx
	push	eax
	push	ecx
	push	dword ptr [ebp+08]
	call	00412EF0
	add	esp,10
	pop	ebp
	ret

l00412D1E:
	mov	edx,[00418BA8]
	mov	eax,00000005
	push	edx
	push	eax
	mov	ecx,00000001
	push	ecx
	push	dword ptr [ebp+08]
	call	00412EF0
	add	esp,10

l00412D3C:
	pop	ebp
	ret
00412D3E                                           CC CC               ..
00412D40 CC CC CC CC CC CC CC CC CC CC CC CC CC CC CC CC ................
00412D50 CC CC CC CC CC CC CC CC CC CC CC CC CC CC CC CC ................

l00412D60:
	push	ebp
	mov	ebp,esp
	sub	esp,00000404
	mov	eax,[0041B004]
	xor	eax,ebp
	mov	[ebp-04],eax
	push	ebx
	mov	ebx,[ebp+08]
	push	esi
	mov	esi,[ebp+0C]
	push	edi
	mov	edi,[0041B01C]
	cmp	edi,FF
	jz	00412DFA

l00412D87:
	cmp	byte ptr [esi],00
	jz	00412DE8

l00412D8C:
	push	esi
	call	00412ED0
	add	eax,2D
	add	esp,04
	cmp	eax,00000400
	ja	00412DE8

l00412D9F:
	push	00418BC4
	lea	eax,[ebp-00000404]
	push	00000400
	push	eax
	call	0041134D
	push	esi
	lea	eax,[ebp-00000404]
	push	00000400
	push	eax
	call	0041117C
	push	00418BE0
	lea	eax,[ebp-00000404]
	push	00000400
	push	eax
	call	0041117C
	add	esp,24
	lea	eax,[ebp-00000404]
	jmp	00412DED

l00412DE8:
	mov	eax,004190A0

l00412DED:
	push	eax
	push	02
	push	edi
	push	ebx
	call	00412EF0
	add	esp,10

l00412DFA:
	mov	ecx,[ebp-04]
	pop	edi
	pop	esi
	xor	ecx,ebp
	pop	ebx
	call	00411249
	mov	esp,ebp
	pop	ebp
	ret
00412E0B                                  CC CC CC CC CC            .....
00412E10 CC CC CC CC CC CC CC CC CC CC CC CC CC CC CC CC ................
00412E20 CC CC CC CC CC CC CC CC CC CC CC CC CC CC CC CC ................
00412E30 CC CC CC CC CC CC CC CC CC CC CC CC CC CC CC CC ................
00412E40 55 8B EC 51 53 8B 5D 10 33 D2 56 8B 75 08 57 33 U..QS.].3.V.u.W3
00412E50 FF 2B DE 89 5D 10 8B 45 14 89 55 FC 83 F8 10 72 .+..]..E..U....r
00412E60 05 B8 10 00 00 00 8B 4D 0C 03 CF 3B D0 73 2C 8A .......M...;.s,.
00412E70 1C 33 0F B6 C3 50 B8 31 00 00 00 68 D0 90 41 00 .3...P.1...h..A.
00412E80 2B C7 50 51 E8 8D E4 FF FF 8B 55 FC 83 C4 10 88 +.PQ......U.....
00412E90 1E 42 8B 5D 10 46 83 C7 03 EB BB 5F C6 06 00 5E .B.].F....._...^
00412EA0 C6 01 00 5B 8B E5 5D C3 CC CC CC CC CC CC CC CC ...[..].........
00412EB0 CC CC CC CC CC CC CC CC CC CC CC CC CC CC CC CC ................
00412EC0 CC CC CC CC CC CC CC CC CC CC CC CC CC CC CC CC ................

;; fn00412ED0: 00412ED0
;;   Called from:
;;     00412D8D (in fn004111EA)
fn00412ED0 proc
	push	ebp
	mov	ebp,esp
	mov	edx,[ebp+08]
	mov	eax,edx

l00412ED8:
	mov	cl,[eax]
	inc	eax
	test	cl,cl
	jnz	00412ED8

l00412EDF:
	sub	eax,edx
	dec	eax
	pop	ebp
	ret
00412EE4             CC CC CC CC CC CC CC CC CC CC CC CC     ............

;; fn00412EF0: 00412EF0
;;   Called from:
;;     00412D14 (in fn00412CF0)
;;     00412D34 (in fn00412CF0)
;;     00412DF2 (in fn004111EA)
fn00412EF0 proc
	push	ebp
	mov	ebp,esp
	sub	esp,00000E3C
	mov	eax,[0041B004]
	xor	eax,ebp
	mov	[ebp-04],eax
	mov	eax,[ebp+10]
	push	ebx
	mov	ebx,[ebp+14]
	push	esi
	mov	esi,[ebp+08]
	push	edi
	push	esi
	mov	[ebp-00000E30],eax
	mov	[ebp-00000E3C],ebx
	mov	dword ptr [ebp-00000E34],00000000
	call	004111A9
	mov	edi,eax
	add	esp,04
	test	edi,edi
	jnz	00412F43

l00412F34:
	push	esi
	call	00411046
	add	esp,04
	mov	[ebp-00000E34],eax

l00412F43:
	push	00
	push	00
	push	FF
	push	ebx
	push	00
	push	0000FDE9
	call	dword ptr [0041C00C]
	cmp	eax,00000200
	jnc	00412F80

l00412F5E:
	push	eax
	lea	eax,[ebp-00000E2C]
	push	eax
	push	FF
	push	ebx
	push	00
	push	0000FDE9
	call	dword ptr [0041C00C]
	lea	ebx,[ebp-00000E2C]
	test	eax,eax
	jnz	00412F85

l00412F80:
	mov	ebx,00418F78

l00412F85:
	push	00001002
	call	00412B20
	add	esp,04
	test	al,al
	jz	00412FB8

l00412F96:
	mov	eax,[ebp-00000E30]
	push	ebx
	push	esi
	push	dword ptr [00418BAC+eax*4]
	push	eax
	call	00412B70
	add	esp,10
	test	al,al
	jnz	004130DD

l00412FB6:
	jmp	00412FBA

l00412FB8:
	mov	al,01

l00412FBA:
	cmp	dword ptr [ebp-00000E34],00
	jnz	00412FCB

l00412FC3:
	test	edi,edi
	jz	004130DC

l00412FCB:
	test	al,al
	jz	00412FDD

l00412FCF:
	call	dword ptr [0041C004]
	test	eax,eax
	jnz	004130DC

l00412FDD:
	push	00000104
	lea	eax,[ebp-00000414]
	push	eax
	lea	eax,[ebp-00000E38]
	push	eax
	push	00000104
	lea	eax,[ebp-0000020C]
	push	eax
	lea	eax,[esi-05]
	push	eax
	call	00411401
	add	esp,18
	test	edi,edi
	jz	0041303E

l0041300C:
	push	ebx
	push	dword ptr [ebp-00000E30]
	lea	eax,[ebp-00000414]
	mov	ecx,edi
	push	00419000
	push	eax
	push	dword ptr [ebp-00000E38]
	lea	eax,[ebp-0000020C]
	push	eax
	push	dword ptr [ebp+0C]
	call	dword ptr [0041E000]
	call	edi
	jmp	004130D4

l0041303E:
	push	00
	push	00
	push	0000030A
	lea	eax,[ebp-00000720]
	mov	esi,0041904C
	push	eax
	push	FF
	lea	eax,[ebp-0000020C]
	push	eax
	push	00
	push	0000FDE9
	call	dword ptr [0041C010]
	test	eax,eax
	jz	00413073

l0041306D:
	lea	esi,[ebp-00000720]

l00413073:
	push	00
	push	00
	push	0000030A
	lea	eax,[ebp-00000A2C]
	mov	edi,00419060
	push	eax
	push	FF
	lea	eax,[ebp-00000414]
	push	eax
	push	00
	push	0000FDE9
	call	dword ptr [0041C010]
	test	eax,eax
	jz	004130A8

l004130A2:
	lea	edi,[ebp-00000A2C]

l004130A8:
	push	dword ptr [ebp-00000E3C]
	mov	ebx,[ebp-00000E34]
	mov	ecx,ebx
	push	dword ptr [ebp-00000E30]
	push	00419078
	push	edi
	push	dword ptr [ebp-00000E38]
	push	esi
	push	dword ptr [ebp+0C]
	call	dword ptr [0041E000]
	call	ebx

l004130D4:
	add	esp,1C
	cmp	eax,01
	jnz	004130DD

l004130DC:
	int	03

l004130DD:
	mov	ecx,[ebp-04]
	pop	edi
	pop	esi
	xor	ecx,ebp
	pop	ebx
	call	00411249
	mov	esp,ebp
	pop	ebp
	ret
004130EE                                           CC CC               ..
004130F0 CC CC CC CC CC CC CC CC CC CC CC CC CC CC CC CC ................
00413100 CC CC CC CC CC CC CC CC CC CC CC CC CC CC CC CC ................
00413110 CC CC CC CC CC CC CC CC CC CC CC CC CC CC CC CC ................
00413120 CC CC CC CC CC CC CC CC CC CC CC CC CC CC CC CC ................
00413130 CC CC CC CC CC CC CC CC CC CC CC CC CC CC CC CC ................
00413140 CC CC CC CC CC CC CC CC CC CC CC CC CC CC CC CC ................
00413150 CC CC CC CC CC CC CC CC CC CC CC CC CC CC CC CC ................
00413160 CC CC CC CC CC CC CC CC CC CC CC CC CC CC CC CC ................

;; fn00413170: 00413170
;;   Called from:
;;     00412B41 (in fn00412B20)
;;     00412BA3 (in fn00412B70)
fn00413170 proc
	push	ebp
	mov	ebp,esp
	push	FE
	push	00419FA0
	push	00415200
	mov	eax,fs:[00000000]
	push	eax
	sub	esp,08
	push	ebx
	push	esi
	push	edi
	mov	eax,[0041B004]
	xor	[ebp-08],eax
	xor	eax,ebp
	push	eax
	lea	eax,[ebp-10]
	mov	fs:[00000000],eax
	mov	[ebp-18],esp
	mov	dword ptr [ebp-04],00000000
	push	dword ptr [ebp+08]
	push	06
	push	00
	push	406D1388
	call	dword ptr [0041C008]
	jmp	004131D4
004131BE                                           8B 45               .E
004131C0 EC 8B 00 33 C9 81 38 88 13 6D 40 0F 94 C1 8B C1 ...3..8..m@.....
004131D0 C3 8B 65 E8                                     ..e.           

l004131D4:
	mov	dword ptr [ebp-04],FFFFFFFE
	mov	ecx,[ebp-10]
	mov	fs:[00000000],ecx
	pop	ecx
	pop	edi
	pop	esi
	pop	ebx
	mov	esp,ebp
	pop	ebp
	ret
004131ED                                        CC CC CC              ...
004131F0 CC CC CC CC CC CC CC CC CC CC CC CC CC CC CC CC ................
00413200 CC CC CC CC CC CC CC CC CC CC CC CC CC CC CC CC ................
00413210 55 8B EC 81 EC 04 04 00 00 A1 04 B0 41 00 33 C5 U...........A.3.
00413220 89 45 FC 56 8B 75 08 57 8B 3D 20 B0 41 00 83 FF .E.V.u.W.= .A...
00413230 FF 74 75 85 F6 74 5C 56 E8 93 FC FF FF 83 C0 3A .tu..t\V.......:
00413240 83 C4 04 3D 00 04 00 00 77 49 68 F4 8B 41 00 8D ...=....wIh..A..
00413250 85 FC FB FF FF 68 00 04 00 00 50 E8 ED E0 FF FF .....h....P.....
00413260 56 8D 85 FC FB FF FF 68 00 04 00 00 50 E8 0A DF V......h....P...
00413270 FF FF 68 04 8C 41 00 8D 85 FC FB FF FF 68 00 04 ..h..A.......h..
00413280 00 00 50 E8 F4 DE FF FF 83 C4 24 8D 85 FC FB FF ..P.......$.....
00413290 FF EB 05 B8 10 92 41 00 50 8B 45 04 6A 03 57 50 ......A.P.E.j.WP
004132A0 E8 4B FC FF FF 83 C4 10 8B 4D FC 5F 33 CD 5E E8 .K.......M._3.^.
004132B0 95 DF FF FF 8B E5 5D C3 CC CC CC CC CC CC CC CC ......].........
004132C0 CC CC CC CC CC CC CC CC CC CC CC CC CC CC CC CC ................
004132D0 CC CC CC CC CC CC CC CC CC CC CC CC CC CC CC CC ................
004132E0 CC CC CC CC CC CC CC CC CC CC CC CC CC CC CC CC ................
004132F0 B8 50 B1 41 00 C3 CC CC CC CC CC CC CC CC CC CC .P.A............
00413300 55 8B EC E8 B5 DE FF FF FF 75 18 FF 75 14 FF 75 U........u..u..u
00413310 10 FF 75 0C FF 75 08 FF 70 04 FF 30 E8 60 DE FF ..u..u..p..0.`..
00413320 FF 83 C4 1C 85 C0 79 03 83 C8 FF 5D C3 CC CC CC ......y....]....
00413330 CC CC CC CC CC CC CC CC CC CC CC CC CC CC CC CC ................
00413340 55 8B EC 8D 45 14 50 6A 00 FF 75 10 FF 75 0C FF U...E.Pj..u..u..
00413350 75 08 E8 5C DE FF FF 83 C4 14 5D C3 CC CC CC CC u..\......].....
00413360 CC CC CC CC CC CC CC CC CC CC CC CC CC CC CC CC ................

;; fn00413370: 00413370
;;   Called from:
;;     004110D2 (in fn004110D2)
fn00413370 proc
	push	ebp
	mov	ebp,esp
	push	00
	call	dword ptr [0041C018]
	mov	eax,[ebp+08]
	push	eax
	call	dword ptr [0041C014]
	push	C0000409
	call	dword ptr [0041C01C]
	push	eax
	call	dword ptr [0041C020]
	pop	ebp
	ret
00413399                            CC CC CC CC CC CC CC          .......
004133A0 CC CC CC CC CC CC CC CC CC CC CC CC CC CC CC CC ................

;; fn004133B0: 004133B0
;;   Called from:
;;     0041100F (in fn00411249)
fn004133B0 proc
	push	ebp
	mov	ebp,esp
	sub	esp,00000324
	push	17
	call	0041106E
	test	eax,eax
	jz	004133CB

l004133C4:
	mov	ecx,00000002
	int	29

l004133CB:
	mov	[0041B260],eax
	mov	[0041B25C],ecx
	mov	[0041B258],edx
	mov	[0041B254],ebx
	mov	[0041B250],esi
	mov	[0041B24C],edi
	mov	[0041B278],ss
	mov	[0041B26C],cs
	mov	[0041B248],ds
	mov	[0041B244],es
	mov	[0041B240],fs
	mov	[0041B23C],gs
	pushf
	pop	dword ptr [0041B270]
	mov	eax,[ebp+00]
	mov	[0041B264],eax
	mov	eax,[ebp+04]
	mov	[0041B268],eax
	lea	eax,[ebp+08]
	mov	[0041B274],eax
	mov	eax,[ebp-00000324]
	mov	dword ptr [0041B1B0],00010001
	mov	eax,[0041B268]
	mov	[0041B16C],eax
	mov	dword ptr [0041B160],C0000409
	mov	dword ptr [0041B164],00000001
	mov	dword ptr [0041B170],00000001
	mov	ecx,00000004
	imul	edx,ecx,00
	mov	dword ptr [edx+0041B174],00000002
	mov	eax,00000004
	imul	ecx,eax,00
	mov	edx,[0041B004]
	mov	[ebp+ecx-08],edx
	mov	eax,00000004
	shl	eax,00
	mov	ecx,[0041B000]
	mov	[ebp+eax-08],ecx
	push	00419250
	call	004110D2
	mov	esp,ebp
	pop	ebp
	ret
004134B3          CC CC CC CC CC CC CC CC CC CC CC CC CC    .............
004134C0 CC CC CC CC CC CC CC CC CC CC CC CC CC CC CC CC ................
004134D0 CC CC CC CC CC CC CC CC CC CC CC CC CC CC CC CC ................
004134E0 CC CC CC CC CC CC CC CC CC CC CC CC CC CC CC CC ................
004134F0 CC CC CC CC CC CC CC CC CC CC CC CC CC CC CC CC ................
00413500 55 8B EC 6A 08 E8 F0 DB FF FF 5D C3 CC CC CC CC U..j......].....
00413510 55 8B EC 81 EC 1C 03 00 00 6A 17 E8 4E DB FF FF U........j..N...
00413520 85 C0 74 05 8B 4D 08 CD 29 A3 60 B2 41 00 89 0D ..t..M..).`.A...
00413530 5C B2 41 00 89 15 58 B2 41 00 89 1D 54 B2 41 00 \.A...X.A...T.A.
00413540 89 35 50 B2 41 00 89 3D 4C B2 41 00 66 8C 15 78 .5P.A..=L.A.f..x
00413550 B2 41 00 66 8C 0D 6C B2 41 00 66 8C 1D 48 B2 41 .A.f..l.A.f..H.A
00413560 00 66 8C 05 44 B2 41 00 66 8C 25 40 B2 41 00 66 .f..D.A.f.%@.A.f
00413570 8C 2D 3C B2 41 00 9C 8F 05 70 B2 41 00 8B 45 00 .-<.A....p.A..E.
00413580 A3 64 B2 41 00 8B 45 04 A3 68 B2 41 00 8D 45 08 .d.A..E..h.A..E.
00413590 A3 74 B2 41 00 8B 85 E4 FC FF FF A1 68 B2 41 00 .t.A........h.A.
004135A0 A3 6C B1 41 00 C7 05 60 B1 41 00 09 04 00 C0 C7 .l.A...`.A......
004135B0 05 64 B1 41 00 01 00 00 00 C7 05 70 B1 41 00 01 .d.A.......p.A..
004135C0 00 00 00 B9 04 00 00 00 6B D1 00 8B 45 08 89 82 ........k...E...
004135D0 74 B1 41 00 68 50 92 41 00 E8 F4 DA FF FF 8B E5 t.A.hP.A........
004135E0 5D C3 CC CC CC CC CC CC CC CC CC CC CC CC CC CC ]...............
004135F0 CC CC CC CC CC CC CC CC CC CC CC CC CC CC CC CC ................
00413600 CC CC CC CC CC CC CC CC CC CC CC CC CC CC CC CC ................
00413610 CC CC CC CC CC CC CC CC CC CC CC CC CC CC CC CC ................
00413620 55 8B EC 81 EC 20 03 00 00 6A 17 E8 3E DA FF FF U.... ...j..>...
00413630 85 C0 74 05 8B 4D 08 CD 29 A3 60 B2 41 00 89 0D ..t..M..).`.A...
00413640 5C B2 41 00 89 15 58 B2 41 00 89 1D 54 B2 41 00 \.A...X.A...T.A.
00413650 89 35 50 B2 41 00 89 3D 4C B2 41 00 66 8C 15 78 .5P.A..=L.A.f..x
00413660 B2 41 00 66 8C 0D 6C B2 41 00 66 8C 1D 48 B2 41 .A.f..l.A.f..H.A
00413670 00 66 8C 05 44 B2 41 00 66 8C 25 40 B2 41 00 66 .f..D.A.f.%@.A.f
00413680 8C 2D 3C B2 41 00 9C 8F 05 70 B2 41 00 8B 45 00 .-<.A....p.A..E.
00413690 A3 64 B2 41 00 8B 45 04 A3 68 B2 41 00 8D 45 08 .d.A..E..h.A..E.
004136A0 A3 74 B2 41 00 8B 85 E0 FC FF FF A1 68 B2 41 00 .t.A........h.A.
004136B0 A3 6C B1 41 00 C7 05 60 B1 41 00 09 04 00 C0 C7 .l.A...`.A......
004136C0 05 64 B1 41 00 01 00 00 00 83 7D 0C 00 76 0D 83 .d.A......}..v..
004136D0 7D 10 00 75 07 C7 45 0C 00 00 00 00 83 7D 0C 0E }..u..E......}..
004136E0 76 09 8B 4D 0C 83 E9 01 89 4D 0C 8B 55 0C 83 C2 v..M.....M..U...
004136F0 01 89 15 70 B1 41 00 B8 04 00 00 00 6B C8 00 8B ...p.A......k...
00413700 55 08 89 91 74 B1 41 00 C7 45 FC 00 00 00 00 EB U...t.A..E......
00413710 09 8B 45 FC 83 C0 01 89 45 FC 8B 4D FC 3B 4D 0C ..E.....E..M.;M.
00413720 73 15 8B 55 FC 8B 45 FC 8B 4D 10 8B 04 81 89 04 s..U..E..M......
00413730 95 78 B1 41 00 EB DA 68 50 92 41 00 E8 91 D9 FF .x.A...hP.A.....
00413740 FF 8B E5 5D C3 CC CC CC CC CC CC CC CC CC CC CC ...]............
00413750 CC CC CC CC CC CC CC CC CC CC CC CC CC CC CC CC ................
00413760 CC CC CC CC CC CC CC CC CC CC CC CC CC CC CC CC ................
00413770 CC CC CC CC CC CC CC CC CC CC CC CC CC CC CC CC ................
00413780 CC CC CC CC CC CC CC CC CC CC CC CC CC CC CC CC ................

l00413790:
	mov	eax,[0041B51C]
	ret
00413796                   CC CC CC CC CC CC CC CC CC CC       ..........

l004137A0:
	mov	eax,[0041B520]
	ret
004137A6                   CC CC CC CC CC CC CC CC CC CC       ..........
004137B0 55 8B EC 8B 45 08 83 F8 04 77 09 8B 04 85 5C 92 U...E....w....\.
004137C0 41 00 5D C3 33 C0 5D C3 CC CC CC CC CC CC CC CC A.].3.].........
004137D0 B8 05 00 00 00 C3 CC CC CC CC CC CC CC CC CC CC ................
004137E0 55 8B EC A1 1C B5 41 00 8B 4D 08 89 0D 1C B5 41 U.....A..M.....A
004137F0 00 C7 05 20 B5 41 00 00 00 00 00 5D C3 CC CC CC ... .A.....]....
00413800 CC CC CC CC CC CC CC CC CC CC CC CC CC CC CC CC ................
00413810 55 8B EC A1 20 B5 41 00 8B 4D 08 89 0D 20 B5 41 U... .A..M... .A
00413820 00 C7 05 1C B5 41 00 00 00 00 00 5D C3 CC CC CC .....A.....]....
00413830 CC CC CC CC CC CC CC CC CC CC CC CC CC CC CC CC ................
00413840 55 8B EC 8B 55 08 83 FA 04 77 13 8B 04 95 14 B0 U...U....w......
00413850 41 00 8B 4D 0C 89 0C 95 14 B0 41 00 5D C3 83 C8 A..M......A.]...
00413860 FF 5D C3 CC CC CC CC CC CC CC CC CC CC CC CC CC .]..............

;; fn00413870: 00413870
;;   Called from:
;;     00413D9E (in fn00411217)
fn00413870 proc
	push	ebp
	mov	ebp,esp
	sub	esp,18
	mov	eax,[ebp+08]
	mov	[ebp-0C],eax
	mov	ecx,[ebp-0C]
	mov	edx,[ebp-0C]
	add	edx,[ecx+3C]
	mov	[ebp-14],edx
	mov	eax,[ebp-14]
	mov	[ebp-08],eax
	mov	ecx,[ebp-08]
	movzx	edx,word ptr [ecx+14]
	mov	eax,[ebp-08]
	lea	ecx,[eax+edx+18]
	mov	[ebp-10],ecx
	mov	edx,[ebp-08]
	movzx	eax,word ptr [edx+06]
	imul	ecx,eax,28
	add	ecx,[ebp-10]
	mov	[ebp-18],ecx
	mov	edx,[ebp-10]
	mov	[ebp-04],edx
	jmp	004138C0

l004138B7:
	mov	eax,[ebp-04]
	add	eax,28
	mov	[ebp-04],eax

l004138C0:
	mov	ecx,[ebp-04]
	cmp	ecx,[ebp-18]
	jz	004138EB

l004138C8:
	mov	edx,[ebp-04]
	mov	eax,[ebp+0C]
	cmp	eax,[edx+0C]
	jc	004138E9

l004138D3:
	mov	ecx,[ebp-04]
	mov	edx,[ecx+0C]
	mov	eax,[ebp-04]
	add	edx,[eax+08]
	cmp	[ebp+0C],edx
	jnc	004138E9

l004138E4:
	mov	eax,[ebp-04]
	jmp	004138ED

l004138E9:
	jmp	004138B7

l004138EB:
	xor	eax,eax

l004138ED:
	mov	esp,ebp
	pop	ebp
	ret
004138F1    CC CC CC CC CC CC CC CC CC CC CC CC CC CC CC  ...............
00413900 CC CC CC CC CC CC CC CC CC CC CC CC CC CC CC CC ................
00413910 CC CC CC CC CC CC CC CC CC CC CC CC CC CC CC CC ................

;; fn00413920: 00413920
;;   Called from:
;;     00413D6B (in fn00411217)
fn00413920 proc
	push	ebp
	mov	ebp,esp
	sub	esp,10
	cmp	dword ptr [ebp+08],00
	jnz	00413930

l0041392C:
	xor	al,al
	jmp	00413985

l00413930:
	mov	eax,[ebp+08]
	mov	[ebp-04],eax
	mov	ecx,[ebp-04]
	movzx	edx,word ptr [ecx]
	cmp	edx,00005A4D
	jz	00413948

l00413944:
	xor	al,al
	jmp	00413985

l00413948:
	mov	eax,[ebp-04]
	mov	ecx,[ebp-04]
	add	ecx,[eax+3C]
	mov	[ebp-0C],ecx
	mov	edx,[ebp-0C]
	mov	[ebp-08],edx
	mov	eax,[ebp-08]
	cmp	dword ptr [eax],00004550
	jz	00413969

l00413965:
	xor	al,al
	jmp	00413985

l00413969:
	mov	ecx,[ebp-08]
	add	ecx,18
	mov	[ebp-10],ecx
	mov	edx,[ebp-10]
	movzx	eax,word ptr [edx]
	cmp	eax,0000010B
	jz	00413983

l0041397F:
	xor	al,al
	jmp	00413985

l00413983:
	mov	al,01

l00413985:
	mov	esp,ebp
	pop	ebp
	ret
00413989                            CC CC CC CC CC CC CC          .......
00413990 CC CC CC CC CC CC CC CC CC CC CC CC CC CC CC CC ................
004139A0 CC CC CC CC CC CC CC CC CC CC CC CC CC CC CC CC ................

l004139B0:
	push	ebp
	mov	ebp,esp
	mov	eax,fs:[00000018]
	pop	ebp
	ret
004139BB                                  CC CC CC CC CC            .....

l004139C0:
	push	ebp
	mov	ebp,esp
	sub	esp,08
	call	004110FF
	test	eax,eax
	jnz	004139D3

l004139CF:
	xor	al,al
	jmp	00413A05

l004139D3:
	call	004113F7
	mov	eax,[eax+04]
	mov	[ebp-04],eax

l004139DE:
	mov	ecx,[ebp-04]
	mov	edx,0041B52C
	xor	eax,eax
	lock
	cmpxchg	[edx],ecx
	mov	[ebp-08],eax
	cmp	dword ptr [ebp-08],00
	jz	00413A03

l004139F5:
	mov	eax,[ebp-04]
	cmp	eax,[ebp-08]
	jnz	00413A01

l004139FD:
	mov	al,01
	jmp	00413A05

l00413A01:
	jmp	004139DE

l00413A03:
	xor	al,al

l00413A05:
	mov	esp,ebp
	pop	ebp
	ret
00413A09                            CC CC CC CC CC CC CC          .......
00413A10 CC CC CC CC CC CC CC CC CC CC CC CC CC CC CC CC ................
00413A20 55 8B EC E8 D7 D6 FF FF 85 C0 74 07 E8 E3 D5 FF U.........t.....
00413A30 FF EB 12 E8 8D D9 FF FF 85 C0 74 04 32 C0 EB 07 ..........t.2...
00413A40 E8 63 D8 FF FF B0 01 5D C3 CC CC CC CC CC CC CC .c.....]........
00413A50 CC CC CC CC CC CC CC CC CC CC CC CC CC CC CC CC ................
00413A60 55 8B EC 6A 00 E8 D2 D5 FF FF 83 C4 04 0F B6 C0 U..j............
00413A70 85 C0 75 04 32 C0 EB 02 B0 01 5D C3 CC CC CC CC ..u.2.....].....
00413A80 CC CC CC CC CC CC CC CC CC CC CC CC CC CC CC CC ................
00413A90 55 8B EC E8 3F D6 FF FF 0F B6 C0 85 C0 75 04 32 U...?........u.2
00413AA0 C0 EB 17 E8 D8 D7 FF FF 0F B6 C8 85 C9 75 09 E8 .............u..
00413AB0 67 D8 FF FF 32 C0 EB 02 B0 01 5D C3 CC CC CC CC g...2.....].....
00413AC0 CC CC CC CC CC CC CC CC CC CC CC CC CC CC CC CC ................
00413AD0 55 8B EC E8 E6 D5 FF FF E8 3E D8 FF FF B0 01 5D U........>.....]
00413AE0 C3 CC CC CC CC CC CC CC CC CC CC CC CC CC CC CC ................
00413AF0 55 8B EC 83 EC 08 E8 04 D6 FF FF 85 C0 75 28 83 U............u(.
00413B00 7D 0C 01 75 22 8B 45 14 89 45 F8 8B 4D 10 51 6A }..u".E..E..M.Qj
00413B10 00 8B 55 08 52 8B 45 F8 89 45 FC 8B 4D FC FF 15 ..U.R.E..E..M...
00413B20 00 E0 41 00 FF 55 FC 8B 4D 1C 51 8B 55 18 52 E8 ..A..U..M.Q.U.R.
00413B30 29 D7 FF FF 83 C4 08 8B E5 5D C3 CC CC CC CC CC )........]......
00413B40 CC CC CC CC CC CC CC CC CC CC CC CC CC CC CC CC ................
00413B50 55 8B EC E8 A7 D5 FF FF 85 C0 74 0F 68 34 B5 41 U.........t.h4.A
00413B60 00 E8 A3 D5 FF FF 83 C4 04 EB 0E E8 5D D5 FF FF ............]...
00413B70 85 C0 75 05 E8 AF D4 FF FF 5D C3 CC CC CC CC CC ..u......]......
00413B80 CC CC CC CC CC CC CC CC CC CC CC CC CC CC CC CC ................
00413B90 55 8B EC 6A 00 E8 12 D8 FF FF 83 C4 04 E8 9C D7 U..j............
00413BA0 FF FF 5D C3 CC CC CC CC CC CC CC CC CC CC CC CC ..].............

;; fn00413BB0: 00413BB0
;;   Called from:
;;     00411154 (in fn00411154)
fn00413BB0 proc
	push	ebp
	mov	ebp,esp
	cmp	dword ptr [ebp+08],00
	jnz	00413BC0

l00413BB9:
	mov	byte ptr [0041B530],01

l00413BC0:
	call	00411014
	call	00411177
	movzx	eax,al
	test	eax,eax
	jnz	00413BD5

l00413BD1:
	xor	al,al
	jmp	00413BF1

l00413BD5:
	call	0041135C
	movzx	ecx,al
	test	ecx,ecx
	jnz	00413BEF

l00413BE1:
	push	00
	call	0041110E
	add	esp,04
	xor	al,al
	jmp	00413BF1

l00413BEF:
	mov	al,01

l00413BF1:
	pop	ebp
	ret
00413BF3          CC CC CC CC CC CC CC CC CC CC CC CC CC    .............
00413C00 CC CC CC CC CC CC CC CC CC CC CC CC CC CC CC CC ................
00413C10 55 8B EC 83 EC 1C 0F B6 05 31 B5 41 00 85 C0 74 U........1.A...t
00413C20 07 B0 01 E9 B6 00 00 00 83 7D 08 00 74 0D 83 7D .........}..t..}
00413C30 08 01 74 07 6A 05 E8 26 D7 FF FF E8 BF D4 FF FF ..t.j..&........
00413C40 85 C0 74 32 83 7D 08 00 75 2C 68 34 B5 41 00 E8 ..t2.}..u,h4.A..
00413C50 E7 D4 FF FF 83 C4 04 85 C0 74 04 32 C0 EB 7F 68 .........t.2...h
00413C60 40 B5 41 00 E8 D2 D4 FF FF 83 C4 04 85 C0 74 04 @.A...........t.
00413C70 32 C0 EB 6A EB 5F C7 45 FC FF FF FF FF 8B 4D FC 2..j._.E......M.
00413C80 89 4D F0 8B 55 FC 89 55 F4 8B 45 FC 89 45 F8 8B .M..U..U..E..E..
00413C90 4D F0 89 0D 34 B5 41 00 8B 55 F4 89 15 38 B5 41 M...4.A..U...8.A
00413CA0 00 8B 45 F8 A3 3C B5 41 00 8B 4D FC 89 4D E4 8B ..E..<.A..M..M..
00413CB0 55 FC 89 55 E8 8B 45 FC 89 45 EC 8B 4D E4 89 0D U..U..E..E..M...
00413CC0 40 B5 41 00 8B 55 E8 89 15 44 B5 41 00 8B 45 EC @.A..U...D.A..E.
00413CD0 A3 48 B5 41 00 C6 05 31 B5 41 00 01 B0 01 8B E5 .H.A...1.A......
00413CE0 5D C3 CC CC CC CC CC CC CC CC CC CC CC CC CC CC ]...............
00413CF0 CC CC CC CC CC CC CC CC CC CC CC CC CC CC CC CC ................
00413D00 CC CC CC CC CC CC CC CC CC CC CC CC CC CC CC CC ................
00413D10 CC CC CC CC CC CC CC CC CC CC CC CC CC CC CC CC ................

l00413D20:
	push	ebp
	mov	ebp,esp
	push	FE
	push	00419FC0
	push	00414730
	mov	eax,fs:[00000000]
	push	eax
	add	esp,D8
	push	ebx
	push	esi
	push	edi
	mov	eax,[0041B004]
	xor	[ebp-08],eax
	xor	eax,ebp
	push	eax
	lea	eax,[ebp-10]
	mov	fs:[00000000],eax
	mov	[ebp-18],esp
	mov	eax,[ebp+08]
	mov	[ebp-30],eax
	mov	dword ptr [ebp-24],00400000
	mov	dword ptr [ebp-04],00000000
	mov	ecx,[ebp-24]
	push	ecx
	call	00413920
	add	esp,04
	movzx	edx,al
	test	edx,edx
	jnz	00413D8D

l00413D7A:
	mov	byte ptr [ebp-19],00
	mov	dword ptr [ebp-04],FFFFFFFE
	mov	al,[ebp-19]
	jmp	00413E37

l00413D8D:
	mov	eax,[ebp-30]
	sub	eax,[ebp-24]
	mov	[ebp-34],eax
	mov	ecx,[ebp-34]
	push	ecx
	mov	edx,[ebp-24]
	push	edx
	call	00413870
	add	esp,08
	mov	[ebp-28],eax
	cmp	dword ptr [ebp-28],00
	jnz	00413DBF

l00413DAF:
	mov	byte ptr [ebp-1A],00
	mov	dword ptr [ebp-04],FFFFFFFE
	mov	al,[ebp-1A]
	jmp	00413E37

l00413DBF:
	mov	eax,[ebp-28]
	mov	ecx,[eax+24]
	and	ecx,80000000
	jz	00413DDD

l00413DCD:
	mov	byte ptr [ebp-1B],00
	mov	dword ptr [ebp-04],FFFFFFFE
	mov	al,[ebp-1B]
	jmp	00413E37

l00413DDD:
	mov	byte ptr [ebp-1C],01
	mov	dword ptr [ebp-04],FFFFFFFE
	mov	al,[ebp-1C]
	jmp	00413E37
00413DED                                        C7 45 FC              .E.
00413DF0 FE FF FF FF EB 41 8B 55 EC 8B 02 8B 08 89 4D C8 .....A.U......M.
00413E00 81 7D C8 05 00 00 C0 75 09 C7 45 D4 01 00 00 00 .}.....u..E.....
00413E10 EB 07 C7 45 D4 00 00 00 00 8B 45 D4 C3 8B 65 E8 ...E......E...e.
00413E20 C6 45 E3 00 C7 45 FC FE FF FF FF 8A 45 E3 EB 07 .E...E......E...
00413E30 C7 45 FC FE FF FF FF                            .E.....        

l00413E37:
	mov	ecx,[ebp-10]
	mov	fs:[00000000],ecx
	pop	ecx
	pop	edi
	pop	esi
	pop	ebx
	mov	esp,ebp
	pop	ebp
	ret
00413E49                            CC CC CC CC CC CC CC          .......
00413E50 CC CC CC CC CC CC CC CC CC CC CC CC CC CC CC CC ................
00413E60 CC CC CC CC CC CC CC CC CC CC CC CC CC CC CC CC ................
00413E70 CC CC CC CC CC CC CC CC CC CC CC CC CC CC CC CC ................
00413E80 CC CC CC CC CC CC CC CC CC CC CC CC CC CC CC CC ................
00413E90 CC CC CC CC CC CC CC CC CC CC CC CC CC CC CC CC ................

l00413EA0:
	push	ebp
	mov	ebp,esp
	call	004110FF
	test	eax,eax
	jnz	00413EAE

l00413EAC:
	jmp	00413EC1

l00413EAE:
	movzx	eax,byte ptr [ebp+08]
	test	eax,eax
	jz	00413EB8

l00413EB6:
	jmp	00413EC1

l00413EB8:
	xor	ecx,ecx
	mov	edx,0041B52C
	xchg	[edx],ecx

l00413EC1:
	pop	ebp
	ret
00413EC3          CC CC CC CC CC CC CC CC CC CC CC CC CC    .............

l00413ED0:
	push	ebp
	mov	ebp,esp
	movzx	eax,byte ptr [0041B530]
	test	eax,eax
	jz	00413EEA

l00413EDE:
	movzx	ecx,byte ptr [ebp+0C]
	test	ecx,ecx
	jz	00413EEA

l00413EE6:
	mov	al,01
	jmp	00413F06

l00413EEA:
	movzx	edx,byte ptr [ebp+08]
	push	edx
	call	0041109B
	add	esp,04
	movzx	eax,byte ptr [ebp+08]
	push	eax
	call	0041110E
	add	esp,04
	mov	al,01

l00413F06:
	pop	ebp
	ret
00413F08                         CC CC CC CC CC CC CC CC         ........
00413F10 CC CC CC CC CC CC CC CC CC CC CC CC CC CC CC CC ................
00413F20 55 8B EC 83 EC 0C A1 34 B5 41 00 89 45 F4 83 7D U......4.A..E..}
00413F30 F4 FF 75 26 8B 4D 08 51 E8 E1 D0 FF FF 83 C4 04 ..u&.M.Q........
00413F40 85 C0 75 08 8B 55 08 89 55 FC EB 07 C7 45 FC 00 ..u..U..U....E..
00413F50 00 00 00 8B 45 FC EB 29 EB 27 8B 45 08 50 68 34 ....E..).'.E.Ph4
00413F60 B5 41 00 E8 03 D4 FF FF 83 C4 08 85 C0 75 08 8B .A...........u..
00413F70 4D 08 89 4D F8 EB 07 C7 45 F8 00 00 00 00 8B 45 M..M....E......E
00413F80 F8 8B E5 5D C3 CC CC CC CC CC CC CC CC CC CC CC ...]............
00413F90 CC CC CC CC CC CC CC CC CC CC CC CC CC CC CC CC ................
00413FA0 55 8B EC 83 EC 08 A1 40 B5 41 00 89 45 FC 83 7D U......@.A..E..}
00413FB0 FC FF 75 10 8B 4D 08 51 E8 18 D3 FF FF 83 C4 04 ..u..M.Q........
00413FC0 EB 19 EB 17 8B 55 08 89 55 F8 8B 45 F8 50 68 40 .....U..U..E.Ph@
00413FD0 B5 41 00 E8 93 D3 FF FF 83 C4 08 8B E5 5D C3 CC .A...........]..
00413FE0 CC CC CC CC CC CC CC CC CC CC CC CC CC CC CC CC ................
00413FF0 55 8B EC 51 8B 45 08 50 E8 A1 D2 FF FF 83 C4 04 U..Q.E.P........
00414000 85 C0 74 09 C7 45 FC 00 00 00 00 EB 07 C7 45 FC ..t..E........E.
00414010 FF FF FF FF 8B 45 FC 8B E5 5D C3 CC CC CC CC CC .....E...]......
00414020 CC CC CC CC CC CC CC CC CC CC CC CC CC CC CC CC ................

;; fn00414030: 00414030
;;   Called from:
;;     004140EC (in fn004140C0)
fn00414030 proc
	push	ebp
	mov	ebp,esp
	sub	esp,14
	xor	eax,eax
	mov	[ebp-0C],eax
	mov	[ebp-08],eax
	lea	ecx,[ebp-0C]
	push	ecx
	call	dword ptr [0041C048]
	mov	edx,[ebp-0C]
	mov	[ebp-04],edx
	mov	eax,[ebp-04]
	xor	eax,[ebp-08]
	mov	[ebp-04],eax
	call	dword ptr [0041C058]
	xor	eax,[ebp-04]
	mov	[ebp-04],eax
	call	dword ptr [0041C02C]
	xor	eax,[ebp-04]
	mov	[ebp-04],eax
	lea	ecx,[ebp-14]
	push	ecx
	call	dword ptr [0041C028]
	mov	edx,[ebp-04]
	xor	edx,[ebp-14]
	mov	[ebp-04],edx
	mov	eax,[ebp-04]
	xor	eax,[ebp-10]
	mov	[ebp-04],eax
	mov	ecx,[ebp-04]
	lea	edx,[ebp-04]
	xor	ecx,edx
	mov	[ebp-04],ecx
	mov	eax,[ebp-04]
	mov	esp,ebp
	pop	ebp
	ret
0041409D                                        CC CC CC              ...
004140A0 CC CC CC CC CC CC CC CC CC CC CC CC CC CC CC CC ................
004140B0 CC CC CC CC CC CC CC CC CC CC CC CC CC CC CC CC ................

;; fn004140C0: 004140C0
;;   Called from:
;;     00411348 (in fn00411348)
fn004140C0 proc
	push	ebp
	mov	ebp,esp
	push	ecx
	cmp	dword ptr [0041B004],BB40E64E
	jz	004140EC

l004140D0:
	mov	eax,[0041B004]
	and	eax,FFFF0000
	jz	004140EC

l004140DC:
	mov	ecx,[0041B004]
	not	ecx
	mov	[0041B000],ecx
	jmp	00414136

l004140EC:
	call	00414030
	mov	[ebp-04],eax
	cmp	dword ptr [ebp-04],BB40E64E
	jnz	00414106

l004140FD:
	mov	dword ptr [ebp-04],BB40E64F
	jmp	00414122

l00414106:
	mov	edx,[ebp-04]
	and	edx,FFFF0000
	jnz	00414122

l00414111:
	mov	eax,[ebp-04]
	or	eax,00004711
	shl	eax,10
	or	eax,[ebp-04]
	mov	[ebp-04],eax

l00414122:
	mov	ecx,[ebp-04]
	mov	[0041B004],ecx
	mov	edx,[ebp-04]
	not	edx
	mov	[0041B000],edx

l00414136:
	mov	esp,ebp
	pop	ebp
	ret
0041413A                               CC CC CC CC CC CC           ......
00414140 CC CC CC CC CC CC CC CC CC CC CC CC CC CC CC CC ................
00414150 CC CC CC CC CC CC CC CC CC CC CC CC CC CC CC CC ................
00414160 55 8B EC 33 C0 5D C3 CC CC CC CC CC CC CC CC CC U..3.]..........
00414170 55 8B EC B8 01 00 00 00 5D C3 CC CC CC CC CC CC U.......].......
00414180 55 8B EC 33 C0 5D C3 CC CC CC CC CC CC CC CC CC U..3.]..........
00414190 55 8B EC B8 00 40 00 00 5D C3 CC CC CC CC CC CC U....@..].......
004141A0 55 8B EC 33 C0 5D C3 CC CC CC CC CC CC CC CC CC U..3.]..........
004141B0 55 8B EC 33 C0 5D C3 CC CC CC CC CC CC CC CC CC U..3.]..........
004141C0 55 8B EC 68 58 B5 41 00 FF 15 7C C0 41 00 5D C3 U..hX.A...|.A.].
004141D0 CC CC CC CC CC CC CC CC CC CC CC CC CC CC CC CC ................
004141E0 55 8B EC 68 58 B5 41 00 E8 9A CE FF FF 83 C4 04 U..hX.A.........
004141F0 5D C3 CC CC CC CC CC CC CC CC CC CC CC CC CC CC ]...............
00414200 55 8B EC B0 01 5D C3 CC CC CC CC CC CC CC CC CC U....]..........
00414210 55 8B EC 68 00 00 03 00 68 00 00 01 00 6A 00 E8 U..h....h....j..
00414220 C1 CF FF FF 83 C4 0C 85 C0 74 07 6A 07 E8 2F D1 .........t.j../.
00414230 FF FF 5D C3 CC CC CC CC CC CC CC CC CC CC CC CC ..].............
00414240 55 8B EC 5D C3 CC CC CC CC CC CC CC CC CC CC CC U..]............
00414250 55 8B EC 5D C3 CC CC CC CC CC CC CC CC CC CC CC U..]............
00414260 55 8B EC B8 68 B5 41 00 5D C3 CC CC CC CC CC CC U...h.A.].......
00414270 55 8B EC 83 EC 08 E8 42 CF FF FF 89 45 FC 8B 45 U......B....E..E
00414280 FC 8B 08 83 C9 24 8B 50 04 8B 45 FC 89 08 89 50 .....$.P..E....P
00414290 04 E8 9E D0 FF FF 89 45 F8 8B 4D F8 8B 11 83 CA .......E..M.....
004142A0 02 8B 41 04 8B 4D F8 89 11 89 41 04 8B E5 5D C3 ..A..M....A...].
004142B0 CC CC CC CC CC CC CC CC CC CC CC CC CC CC CC CC ................
004142C0 55 8B EC 51 83 3D 30 B0 41 00 00 75 09 C7 45 FC U..Q.=0.A..u..E.
004142D0 01 00 00 00 EB 07 C7 45 FC 00 00 00 00 8B 45 FC .......E......E.
004142E0 8B E5 5D C3 CC CC CC CC CC CC CC CC CC CC CC CC ..].............

l004142F0:
	push	ebp
	mov	ebp,esp
	mov	eax,0041B598
	pop	ebp
	ret
004142FA                               CC CC CC CC CC CC           ......

l00414300:
	push	ebp
	mov	ebp,esp
	mov	eax,0041B58C
	pop	ebp
	ret
0041430A                               CC CC CC CC CC CC           ......

l00414310:
	push	ebp
	mov	ebp,esp
	sub	esp,0000032C
	push	17
	call	0041106E
	test	eax,eax
	jz	00414329

l00414324:
	mov	ecx,[ebp+08]
	int	29

l00414329:
	push	03
	call	0041114A
	add	esp,04
	push	000002CC
	push	00
	lea	eax,[ebp-0000032C]
	push	eax
	call	00411122
	add	esp,0C
	mov	[ebp-0000027C],eax
	mov	[ebp-00000280],ecx
	mov	[ebp-00000284],edx
	mov	[ebp-00000288],ebx
	mov	[ebp-0000028C],esi
	mov	[ebp-00000290],edi
	mov	[ebp-00000264],ss
	mov	[ebp-00000270],cs
	mov	[ebp-00000294],ds
	mov	[ebp-00000298],es
	mov	[ebp-0000029C],fs
	mov	[ebp-000002A0],gs
	pushf
	pop	dword ptr [ebp-0000026C]
	mov	dword ptr [ebp-0000032C],00010001
	mov	ecx,[ebp+04]
	mov	[ebp-00000274],ecx
	lea	edx,[ebp+04]
	mov	[ebp-00000268],edx
	lea	eax,[ebp+04]
	mov	ecx,[eax-04]
	mov	[ebp-00000278],ecx
	push	50
	push	00
	lea	edx,[ebp-60]
	push	edx
	call	00411122
	add	esp,0C
	mov	dword ptr [ebp-60],40000015
	mov	dword ptr [ebp-5C],00000001
	mov	eax,[ebp+04]
	mov	[ebp-54],eax
	call	dword ptr [0041C004]
	cmp	eax,01
	jnz	004143FB

l004143F5:
	mov	byte ptr [ebp-01],01
	jmp	004143FF

l004143FB:
	mov	byte ptr [ebp-01],00

l004143FF:
	mov	cl,[ebp-01]
	mov	[ebp-02],cl
	lea	edx,[ebp-60]
	mov	[ebp-10],edx
	lea	eax,[ebp-0000032C]
	mov	[ebp-0C],eax
	push	00
	call	dword ptr [0041C018]
	lea	ecx,[ebp-10]
	push	ecx
	call	dword ptr [0041C014]
	mov	[ebp-08],eax
	cmp	dword ptr [ebp-08],00
	jnz	00414441

l0041442F:
	movzx	edx,byte ptr [ebp-02]
	test	edx,edx
	jnz	00414441

l00414437:
	push	03
	call	0041114A
	add	esp,04

l00414441:
	mov	esp,ebp
	pop	ebp
	ret
00414445                CC CC CC CC CC CC CC CC CC CC CC      ...........
00414450 CC CC CC CC CC CC CC CC CC CC CC CC CC CC CC CC ................
00414460 CC CC CC CC CC CC CC CC CC CC CC CC CC CC CC CC ................
00414470 CC CC CC CC CC CC CC CC CC CC CC CC CC CC CC CC ................
00414480 CC CC CC CC CC CC CC CC CC CC CC CC CC CC CC CC ................
00414490 CC CC CC CC CC CC CC CC CC CC CC CC CC CC CC CC ................

l004144A0:
	push	ebp
	mov	ebp,esp
	sub	esp,48
	push	44
	push	00
	lea	eax,[ebp-48]
	push	eax
	call	00411122
	add	esp,0C
	lea	ecx,[ebp-48]
	push	ecx
	call	dword ptr [0041C078]
	mov	edx,[ebp-1C]
	and	edx,01
	jz	004144D1

l004144C8:
	movzx	eax,word ptr [ebp-18]
	mov	[ebp-04],eax
	jmp	004144D8

l004144D1:
	mov	dword ptr [ebp-04],0000000A

l004144D8:
	mov	ax,[ebp-04]
	mov	esp,ebp
	pop	ebp
	ret
004144E0 CC CC CC CC CC CC CC CC CC CC CC CC CC CC CC CC ................
004144F0 55 8B EC E8 F0 CE FF FF 5D C3 CC CC CC CC CC CC U.......].......
00414500 55 8B EC 33 C0 5D C3 CC CC CC CC CC CC CC CC CC U..3.]..........

l00414510:
	push	ebp
	mov	ebp,esp
	sub	esp,08
	push	00
	call	dword ptr [0041C074]
	mov	[ebp-04],eax
	cmp	dword ptr [ebp-04],00
	jnz	0041452B

l00414527:
	xor	al,al
	jmp	0041458F

l0041452B:
	mov	eax,[ebp-04]
	movzx	ecx,word ptr [eax]
	cmp	ecx,00005A4D
	jz	0041453D

l00414539:
	xor	al,al
	jmp	0041458F

l0041453D:
	mov	edx,[ebp-04]
	mov	eax,[ebp-04]
	add	eax,[edx+3C]
	mov	[ebp-08],eax
	mov	ecx,[ebp-08]
	cmp	dword ptr [ecx],00004550
	jz	00414558

l00414554:
	xor	al,al
	jmp	0041458F

l00414558:
	mov	edx,[ebp-08]
	movzx	eax,word ptr [edx+18]
	cmp	eax,0000010B
	jz	0041456A

l00414566:
	xor	al,al
	jmp	0041458F

l0041456A:
	mov	ecx,[ebp-08]
	cmp	dword ptr [ecx+74],0E
	ja	00414577

l00414573:
	xor	al,al
	jmp	0041458F

l00414577:
	mov	edx,00000008
	imul	eax,edx,0E
	mov	ecx,[ebp-08]
	cmp	dword ptr [ecx+eax+78],00
	jnz	0041458D

l00414589:
	xor	al,al
	jmp	0041458F

l0041458D:
	mov	al,01

l0041458F:
	mov	esp,ebp
	pop	ebp
	ret
00414593          CC CC CC CC CC CC CC CC CC CC CC CC CC    .............
004145A0 CC CC CC CC CC CC CC CC CC CC CC CC CC CC CC CC ................
004145B0 CC CC CC CC CC CC CC CC CC CC CC CC CC CC CC CC ................
004145C0 55 8B EC 68 A4 11 41 00 FF 15 18 C0 41 00 5D C3 U..h..A.....A.].
004145D0 CC CC CC CC CC CC CC CC CC CC CC CC CC CC CC CC ................
004145E0 55 8B EC 33 C0 5D C3 CC CC CC CC CC CC CC CC CC U..3.]..........
004145F0 55 8B EC 83 EC 08 8B 45 08 8B 08 89 4D FC 8B 55 U......E....M..U
00414600 FC 81 3A 63 73 6D E0 75 5B 8B 45 FC 83 78 10 03 ..:csm.u[.E..x..
00414610 75 52 8B 4D FC 81 79 14 20 05 93 19 74 24 8B 55 uR.M..y. ...t$.U
00414620 FC 81 7A 14 21 05 93 19 74 18 8B 45 FC 81 78 14 ..z.!...t..E..x.
00414630 22 05 93 19 74 0C 8B 4D FC 81 79 14 00 40 99 01 "...t..M..y..@..
00414640 75 22 E8 21 CB FF FF 8B 55 FC 89 10 8B 45 08 8B u".!....U....E..
00414650 48 04 89 4D F8 E8 F4 CB FF FF 8B 55 F8 89 10 E8 H..M.......U....
00414660 05 CA FF FF 33 C0 8B E5 5D C2 04 00 CC CC CC CC ....3...].......
00414670 CC CC CC CC CC CC CC CC CC CC CC CC CC CC CC CC ................
00414680 CC CC CC CC CC CC CC CC CC CC CC CC CC CC CC CC ................

;; fn00414690: 00414690
;;   Called from:
;;     0041114A (in fn0041114A)
fn00414690 proc
	push	ebp
	mov	ebp,esp
	mov	dword ptr [0041B574],00000000
	pop	ebp
	ret
0041469F                                              CC                .
004146A0 CC CC CC CC CC CC CC CC CC CC CC CC CC CC CC CC ................
004146B0 56 BE 50 99 41 00 8B C6 3D 60 9B 41 00 73 1D 57 V.P.A...=`.A.s.W
004146C0 8B 3E 85 FF 74 0A 8B CF FF 15 00 E0 41 00 FF D7 .>..t.......A...
004146D0 83 C6 04 81 FE 60 9B 41 00 72 E5 5F 5E C3 CC CC .....`.A.r._^...
004146E0 CC CC CC CC CC CC CC CC CC CC CC CC CC CC CC CC ................
004146F0 56 BE 68 9C 41 00 8B C6 3D 78 9E 41 00 73 1D 57 V.h.A...=x.A.s.W
00414700 8B 3E 85 FF 74 0A 8B CF FF 15 00 E0 41 00 FF D7 .>..t.......A...
00414710 83 C6 04 81 FE 78 9E 41 00 72 E5 5F 5E C3 CC CC .....x.A.r._^...
00414720 CC CC CC CC CC CC CC CC CC CC CC CC CC CC CC CC ................
00414730 55 8B EC 8B 45 08 8B 08 51 E8 BF CB FF FF 83 C4 U...E...Q.......
00414740 04 8B 55 08 89 02 8B 45 14 50 8B 4D 10 51 8B 55 ..U....E.P.M.Q.U
00414750 0C 52 8B 45 08 50 68 49 12 41 00 68 04 B0 41 00 .R.E.PhI.A.h..A.
00414760 E8 42 CC FF FF 83 C4 18 5D C3 CC CC CC CC CC CC .B......].......
00414770 CC CC CC CC CC CC CC CC CC CC CC CC CC CC CC CC ................

l00414780:
	push	ebp
	mov	ebp,esp
	push	ecx
	mov	[ebp-04],ecx
	mov	esp,ebp
	pop	ebp
	ret
0041478B                                  CC CC CC CC CC            .....
00414790 55 8B EC 51 8B 45 08 8B 08 89 4D FC 8B 45 FC 8B U..Q.E....M..E..
004147A0 E5 5D C3 CC CC CC CC CC CC CC CC CC CC CC CC CC .]..............
004147B0 55 8B EC 8B 45 08 50 E8 71 C8 FF FF 83 C4 04 5D U...E.P.q......]
004147C0 C3 CC CC CC CC CC CC CC CC CC CC CC CC CC CC CC ................
004147D0 55 8B EC 51 68 00 E0 41 00 E8 A1 CB FF FF 83 C4 U..Qh..A........
004147E0 04 3D EF 11 41 00 74 09 C7 45 FC 01 00 00 00 EB .=..A.t..E......
004147F0 07 C7 45 FC 00 00 00 00 8B 45 FC 8B E5 5D C3 CC ..E......E...]..
00414800 CC CC CC CC CC CC CC CC CC CC CC CC CC CC CC CC ................

;; fn00414810: 00414810
;;   Called from:
;;     00414E69 (in fn00411401)
fn00414810 proc
	push	ebp
	mov	ebp,esp
	sub	esp,00000414
	mov	eax,[0041B004]
	xor	eax,ebp
	mov	[ebp-04],eax
	cmp	byte ptr [0041B57C],00
	jnz	00414940

l00414830:
	mov	byte ptr [0041B57C],01
	call	004149A0
	test	eax,eax
	jnz	00414942

l00414844:
	push	00419364
	call	0041114F
	add	esp,04
	test	eax,eax
	jz	004148CD

l00414855:
	push	00000104
	lea	ecx,[ebp-00000414]
	push	ecx
	push	eax
	call	00411078
	add	esp,0C
	test	eax,eax
	jz	004148CD

l0041486E:
	push	00000104
	lea	eax,[ebp-0000020C]
	push	eax
	lea	eax,[ebp-00000414]
	push	eax
	call	00414C90
	add	esp,0C
	test	eax,eax
	jz	004148CD

l0041488D:
	push	00000900
	lea	eax,[ebp-0000020C]
	push	00
	push	eax
	call	00411357
	add	esp,0C
	test	eax,eax
	jnz	00414942

l004148AB:
	call	dword ptr [0041C070]
	cmp	eax,57
	jnz	004148CD

l004148B6:
	push	08
	lea	eax,[ebp-0000020C]
	push	00
	push	eax
	call	00411357
	add	esp,0C
	test	eax,eax
	jnz	00414942

l004148CD:
	push	00000A00
	push	00
	push	00419514
	call	00411357
	add	esp,0C
	test	eax,eax
	jnz	00414942

l004148E5:
	call	dword ptr [0041C070]
	cmp	eax,57
	jnz	00414940

l004148F0:
	push	00000104
	lea	eax,[ebp-00000414]
	push	eax
	push	00
	call	00411078
	add	esp,0C
	test	eax,eax
	jz	00414940

l0041490A:
	push	00000104
	lea	eax,[ebp-0000020C]
	push	eax
	lea	eax,[ebp-00000414]
	push	eax
	call	00414C90
	add	esp,0C
	test	eax,eax
	jz	00414940

l00414929:
	push	08
	lea	eax,[ebp-0000020C]
	push	00
	push	eax
	call	00411357
	add	esp,0C
	test	eax,eax
	jnz	00414942

l00414940:
	xor	eax,eax

l00414942:
	mov	ecx,[ebp-04]
	xor	ecx,ebp
	call	00411249
	mov	esp,ebp
	pop	ebp
	ret
00414950 CC CC CC CC CC CC CC CC CC CC CC CC CC CC CC CC ................
00414960 CC CC CC CC CC CC CC CC CC CC CC CC CC CC CC CC ................
00414970 CC CC CC CC CC CC CC CC CC CC CC CC CC CC CC CC ................
00414980 CC CC CC CC CC CC CC CC CC CC CC CC CC CC CC CC ................
00414990 CC CC CC CC CC CC CC CC CC CC CC CC CC CC CC CC ................

;; fn004149A0: 004149A0
;;   Called from:
;;     00414837 (in fn00414810)
fn004149A0 proc
	push	ebp
	mov	ebp,esp
	sub	esp,0000021C
	mov	eax,[0041B004]
	xor	eax,ebp
	mov	[ebp-04],eax
	push	ebx
	push	esi
	push	edi
	push	00000800
	push	00
	push	00419398
	call	00411357
	mov	edi,eax
	add	esp,0C
	test	edi,edi
	jnz	00414A09

l004149D0:
	push	00000800
	push	eax
	push	004193F0
	call	00411357
	mov	edi,eax
	add	esp,0C
	test	edi,edi
	jnz	00414A09

l004149E9:
	call	dword ptr [0041C070]
	cmp	eax,57
	jnz	00414A6D

l004149F4:
	push	edi
	push	edi
	push	004193F0
	call	00411357
	mov	edi,eax
	add	esp,0C
	test	edi,edi
	jz	00414A6D

l00414A09:
	push	00419410
	push	edi
	call	dword ptr [0041C000]
	mov	esi,eax
	test	esi,esi
	jz	00414A6D

l00414A1B:
	push	00419420
	push	edi
	call	dword ptr [0041C000]
	mov	ebx,eax
	test	ebx,ebx
	jz	00414A6D

l00414A2D:
	push	00419434
	push	edi
	call	dword ptr [0041C000]
	mov	[ebp-00000218],eax
	test	eax,eax
	jz	00414A6D

l00414A43:
	lea	eax,[ebp-00000210]
	mov	ecx,esi
	push	eax
	push	01
	push	00
	push	00419448
	push	80000002
	call	dword ptr [0041E000]
	call	esi
	test	eax,eax
	jz	00414A80

l00414A66:
	push	edi
	call	dword ptr [0041C05C]

l00414A6D:
	pop	edi
	pop	esi
	xor	eax,eax
	pop	ebx
	mov	ecx,[ebp-04]
	xor	ecx,ebp
	call	00411249
	mov	esp,ebp
	pop	ebp
	ret

l00414A80:
	lea	eax,[ebp-00000214]
	mov	dword ptr [ebp-00000214],00000208
	push	eax
	lea	eax,[ebp-0000020C]
	mov	ecx,ebx
	push	eax
	lea	eax,[ebp-0000021C]
	push	eax
	push	00
	push	004194D4
	push	dword ptr [ebp-00000210]
	call	dword ptr [0041E000]
	call	ebx
	push	dword ptr [ebp-00000210]
	mov	ebx,[ebp-00000218]
	mov	esi,eax
	mov	ecx,ebx
	call	dword ptr [0041E000]
	call	ebx
	push	edi
	call	dword ptr [0041C05C]
	test	esi,esi
	jnz	00414A6D

l00414AD9:
	cmp	dword ptr [ebp-0000021C],01
	jnz	00414A6D

l00414AE2:
	mov	ecx,[ebp-00000214]
	test	cl,01
	jnz	00414A6D

l00414AED:
	shr	ecx,01
	mov	edx,ecx
	cmp	ecx,02
	jc	00414A6D

l00414AFA:
	dec	ecx
	lea	eax,[ebp-0000020C]
	cmp	[eax+ecx*2],si
	lea	eax,[eax+ecx*2]
	jnz	00414A6D

l00414B0E:
	cmp	word ptr [eax-02],5C
	jz	00414B1F

l00414B15:
	mov	ecx,0000005C
	mov	[eax],cx
	mov	ecx,edx

l00414B1F:
	mov	eax,ecx
	not	eax
	cmp	eax,12
	jc	00414A6D

l00414B2C:
	lea	eax,[ecx+11]
	cmp	eax,00000104
	ja	00414A6D

l00414B3A:
	mov	eax,[00419340]
	mov	[ebp+ecx*2-0000020C],eax
	mov	eax,[00419344]
	mov	[ebp+ecx*2-00000208],eax
	mov	eax,[00419348]
	mov	[ebp+ecx*2-00000204],eax
	mov	eax,[0041934C]
	mov	[ebp+ecx*2-00000200],eax
	mov	eax,[00419350]
	mov	[ebp+ecx*2-000001FC],eax
	mov	eax,[00419354]
	mov	[ebp+ecx*2-000001F8],eax
	mov	eax,[00419358]
	mov	[ebp+ecx*2-000001F4],eax
	mov	eax,[0041935C]
	mov	[ebp+ecx*2-000001F0],eax
	mov	ax,[00419360]
	push	00000900
	mov	[ebp+ecx*2-000001EC],ax
	lea	eax,[ebp-0000020C]
	push	00
	push	eax
	call	00411357
	mov	esi,eax
	add	esp,0C
	test	esi,esi
	jnz	00414BE3

l00414BC4:
	call	dword ptr [0041C070]
	cmp	eax,57
	jnz	00414BE3

l00414BCF:
	push	08
	lea	eax,[ebp-0000020C]
	push	esi
	push	eax
	call	00411357
	add	esp,0C
	mov	esi,eax

l00414BE3:
	mov	ecx,[ebp-04]
	mov	eax,esi
	pop	edi
	pop	esi
	xor	ecx,ebp
	pop	ebx
	call	00411249
	mov	esp,ebp
	pop	ebp
	ret
00414BF6                   CC CC CC CC CC CC CC CC CC CC       ..........
00414C00 CC CC CC CC CC CC CC CC CC CC CC CC CC CC CC CC ................
00414C10 CC CC CC CC CC CC CC CC CC CC CC CC CC CC CC CC ................
00414C20 CC CC CC CC CC CC CC CC CC CC CC CC CC CC CC CC ................
00414C30 CC CC CC CC CC CC CC CC CC CC CC CC CC CC CC CC ................
00414C40 CC CC CC CC CC CC CC CC CC CC CC CC CC CC CC CC ................
00414C50 CC CC CC CC CC CC CC CC CC CC CC CC CC CC CC CC ................
00414C60 CC CC CC CC CC CC CC CC CC CC CC CC CC CC CC CC ................
00414C70 CC CC CC CC CC CC CC CC CC CC CC CC CC CC CC CC ................
00414C80 CC CC CC CC CC CC CC CC CC CC CC CC CC CC CC CC ................

;; fn00414C90: 00414C90
;;   Called from:
;;     00414881 (in fn00414810)
;;     0041491D (in fn00414810)
fn00414C90 proc
	push	ebp
	mov	ebp,esp
	sub	esp,0000060C
	mov	eax,[0041B004]
	xor	eax,ebp
	mov	[ebp-04],eax
	mov	eax,[ebp+08]
	lea	ecx,[ebp-0000020C]
	push	esi
	mov	esi,[ebp+0C]
	push	00000100
	push	ecx
	push	00000100
	lea	ecx,[ebp-0000040C]
	push	ecx
	push	00000100
	lea	ecx,[ebp-0000060C]
	push	ecx
	push	03
	lea	ecx,[ebp-0C]
	push	ecx
	push	eax
	call	004112E9
	add	esp,24
	test	eax,eax
	jnz	00414D52

l00414CE1:
	push	004194FC
	lea	eax,[ebp-0000040C]
	push	09
	push	eax
	call	004113CF
	add	esp,0C
	test	eax,eax
	jnz	00414D52

l00414CFB:
	push	004194F0
	lea	eax,[ebp-0000020C]
	push	04
	push	eax
	call	004113CF
	add	esp,0C
	test	eax,eax
	jnz	00414D52

l00414D15:
	lea	eax,[ebp-0000020C]
	push	eax
	lea	eax,[ebp-0000040C]
	push	eax
	lea	eax,[ebp-0000060C]
	push	eax
	lea	eax,[ebp-0C]
	push	eax
	push	dword ptr [ebp+10]
	push	esi
	call	0041119A
	add	esp,18
	test	eax,eax
	jnz	00414D52

l00414D3E:
	mov	eax,00000001
	pop	esi
	mov	ecx,[ebp-04]
	xor	ecx,ebp
	call	00411249
	mov	esp,ebp
	pop	ebp
	ret

l00414D52:
	mov	ecx,[ebp-04]
	xor	eax,eax
	xor	ecx,ebp
	pop	esi
	call	00411249
	mov	esp,ebp
	pop	ebp
	ret
00414D63          CC CC CC CC CC CC CC CC CC CC CC CC CC    .............
00414D70 CC CC CC CC CC CC CC CC CC CC CC CC CC CC CC CC ................
00414D80 CC CC CC CC CC CC CC CC CC CC CC CC CC CC CC CC ................
00414D90 CC CC CC CC CC CC CC CC CC CC CC CC CC CC CC CC ................

l00414DA0:
	push	ebp
	mov	ebp,esp
	mov	eax,[ebp+14]
	sub	esp,4C
	xor	ecx,ecx
	push	ebx
	push	esi
	mov	esi,[ebp+08]
	mov	dword ptr [eax],00000000
	dec	esi
	mov	eax,[ebp+0C]
	push	edi
	push	1C
	mov	[eax],cx
	lea	eax,[ebp-4C]
	push	eax
	push	esi
	call	dword ptr [0041C060]
	test	eax,eax
	jz	00415117

l00414DD3:
	push	dword ptr [ebp+1C]
	push	dword ptr [ebp+18]
	push	dword ptr [ebp-48]
	call	00411078
	add	esp,0C
	test	eax,eax
	jz	00415117

l00414DEC:
	mov	eax,[ebp-48]
	mov	ecx,00005A4D
	cmp	[eax],cx
	jnz	00415117

l00414DFD:
	mov	ecx,[eax+3C]
	test	ecx,ecx
	jle	00415117

l00414E08:
	add	ecx,eax
	cmp	dword ptr [ecx],00004550
	jnz	00415117

l00414E16:
	movzx	edx,word ptr [ecx+14]
	sub	esi,eax
	movzx	edi,word ptr [ecx+06]
	add	edx,20
	xor	ebx,ebx
	xor	eax,eax
	test	edi,edi
	jz	00414E47

l00414E2B:
	add	ecx,edx
	lea	ecx,[ecx+00]

l00414E30:
	mov	edx,[ecx+04]
	cmp	esi,edx
	jc	00414E3F

l00414E37:
	mov	ebx,esi
	sub	ebx,edx
	cmp	esi,[ecx]
	jc	00414E4F

l00414E3F:
	inc	eax
	add	ecx,28
	cmp	eax,edi
	jc	00414E30

l00414E47:
	cmp	eax,edi
	jz	00415117

l00414E4F:
	inc	eax
	cmp	byte ptr [0041B57D],00
	mov	[ebp-0C],eax
	jnz	00414E84

l00414E5C:
	cmp	dword ptr [0041B578],00
	jnz	00415117

l00414E69:
	call	00414810
	mov	[0041B578],eax
	test	eax,eax
	jz	00415117

l00414E7B:
	mov	byte ptr [0041B57D],01
	jmp	00414E89

l00414E84:
	mov	eax,[0041B578]

l00414E89:
	push	0041952C
	push	eax
	call	dword ptr [0041C000]
	mov	esi,eax
	test	esi,esi
	jz	00415117

l00414E9F:
	lea	eax,[ebp-18]
	mov	ecx,esi
	push	eax
	push	00
	push	00
	lea	eax,[ebp-30]
	push	eax
	push	00
	push	00
	push	00
	push	dword ptr [ebp+18]
	call	dword ptr [0041E000]
	call	esi
	add	esp,20
	test	eax,eax
	jz	00415117

l00414EC9:
	mov	edi,[ebp-18]
	mov	dword ptr [ebp-08],00000000
	mov	dword ptr [ebp-24],00000000
	mov	eax,[edi]
	mov	esi,[eax]
	mov	ecx,esi
	call	dword ptr [0041E000]
	mov	ecx,edi
	call	esi
	cmp	eax,01329141
	jnz	00415034

l00414EF5:
	mov	edi,[ebp-18]
	mov	eax,[edi]
	mov	esi,[eax+1C]
	lea	eax,[ebp-20]
	push	eax
	push	00419540
	push	00
	mov	ecx,esi
	call	dword ptr [0041E000]
	mov	ecx,edi
	call	esi
	test	eax,eax
	jz	00415034

l00414F1C:
	mov	edi,[ebp-20]
	push	00
	push	00
	push	00
	mov	eax,[edi]
	mov	esi,[eax+20]
	lea	eax,[ebp-14]
	push	eax
	push	ebx
	push	dword ptr [ebp-0C]
	mov	ecx,esi
	call	dword ptr [0041E000]
	mov	ecx,edi
	call	esi
	test	eax,eax
	jz	00415020

l00414F46:
	mov	edi,[ebp-14]
	mov	eax,[edi]
	mov	esi,[eax+68]
	lea	eax,[ebp-08]
	push	eax
	mov	ecx,esi
	call	dword ptr [0041E000]
	mov	ecx,edi
	call	esi
	test	al,al
	jz	0041500C

l00414F66:
	mov	edi,[ebp-08]
	test	edi,edi
	jz	0041500C

l00414F71:
	mov	eax,[edi]
	mov	esi,[eax+08]
	mov	ecx,esi
	call	dword ptr [0041E000]
	mov	ecx,edi
	call	esi
	test	eax,eax
	jz	00414FE7

l00414F86:
	mov	edi,[ebp-08]
	push	00
	mov	eax,[edi]
	mov	esi,[eax+0C]
	lea	eax,[ebp-10]
	push	eax
	lea	eax,[ebp-28]
	mov	ecx,esi
	push	eax
	lea	eax,[ebp-04]
	push	eax
	lea	eax,[ebp-1C]
	push	eax
	push	00
	call	dword ptr [0041E000]
	mov	ecx,edi
	call	esi
	test	al,al
	jz	00414FF9

l00414FB2:
	movzx	eax,word ptr [ebp-04]
	cmp	eax,[ebp-0C]
	jnz	00414FCF

l00414FBB:
	mov	ecx,[ebp-1C]
	cmp	ecx,ebx
	ja	00414FCF

l00414FC2:
	mov	eax,[ebp-28]
	add	eax,ecx
	cmp	ebx,eax
	jc	00415052

l00414FCF:
	mov	edi,[ebp-08]
	mov	eax,[edi]
	mov	esi,[eax+08]
	mov	ecx,esi
	call	dword ptr [0041E000]
	mov	ecx,edi
	call	esi
	test	eax,eax
	jnz	00414F86

l00414FE7:
	xor	ecx,ecx

l00414FE9:
	push	ecx
	push	00
	call	dword ptr [0041C064]
	push	eax
	call	dword ptr [0041C068]

l00414FF9:
	mov	edi,[ebp-08]
	mov	eax,[edi]
	mov	esi,[eax]
	mov	ecx,esi
	call	dword ptr [0041E000]
	mov	ecx,edi
	call	esi

l0041500C:
	mov	edi,[ebp-14]
	mov	eax,[edi]
	mov	esi,[eax+40]
	mov	ecx,esi
	call	dword ptr [0041E000]
	mov	ecx,edi
	call	esi

l00415020:
	mov	edi,[ebp-20]
	mov	eax,[edi]
	mov	esi,[eax+38]
	mov	ecx,esi
	call	dword ptr [0041E000]
	mov	ecx,edi
	call	esi

l00415034:
	mov	edi,[ebp-18]
	mov	edx,[edi]
	mov	esi,[edx+2C]
	mov	ecx,esi
	call	dword ptr [0041E000]
	mov	ecx,edi
	call	esi
	mov	eax,[ebp-24]
	pop	edi
	pop	esi
	pop	ebx
	mov	esp,ebp
	pop	ebp
	ret

l00415052:
	mov	esi,[ebp-10]
	test	esi,esi
	jz	00414FF9

l00415059:
	cmp	esi,1FFFFFFF
	jnc	00414FF9

l00415061:
	shl	esi,03
	call	dword ptr [0041C064]
	push	esi
	push	00
	push	eax
	call	dword ptr [0041C06C]
	mov	[ebp-0C],eax
	test	eax,eax
	jz	00414FF9

l0041507F:
	mov	edi,[ebp-08]
	push	eax
	lea	eax,[ebp-10]
	push	eax
	mov	ecx,[edi]
	lea	eax,[ebp-2C]
	push	00
	push	00
	push	00
	mov	esi,[ecx+0C]
	mov	ecx,esi
	push	eax
	call	dword ptr [0041E000]
	mov	ecx,edi
	call	esi
	mov	ecx,[ebp-0C]
	test	al,al
	jz	00414FE9

l004150AD:
	sub	ebx,[ebp-1C]
	cmp	ebx,[ecx]
	jc	00414FE9

l004150B8:
	mov	edx,[ebp-10]
	mov	eax,00000001
	cmp	edx,eax
	jbe	004150CE

l004150C4:
	cmp	ebx,[ecx+eax*8]
	jc	004150CE

l004150C9:
	inc	eax
	cmp	eax,edx
	jc	004150C4

l004150CE:
	mov	eax,[ecx+eax*8-04]
	mov	ecx,[ebp+14]
	and	eax,00FFFFFF
	mov	edi,[ebp-14]
	push	00
	push	00
	mov	[ecx],eax
	mov	eax,[edi]
	push	00
	mov	esi,[eax+70]
	lea	eax,[ebp+10]
	push	eax
	push	dword ptr [ebp+0C]
	mov	ecx,esi
	push	dword ptr [ebp-2C]
	call	dword ptr [0041E000]
	mov	ecx,edi
	call	esi
	mov	ecx,[ebp-0C]
	test	al,al
	jz	00414FE9

l0041510B:
	mov	dword ptr [ebp-24],00000001
	jmp	00414FE9

l00415117:
	pop	edi
	pop	esi
	xor	eax,eax
	pop	ebx
	mov	esp,ebp
	pop	ebp
	ret
00415120 CC CC CC CC CC CC CC CC CC CC CC CC CC CC CC CC ................
00415130 CC CC CC CC CC CC CC CC CC CC CC CC CC CC CC CC ................
00415140 CC CC CC CC CC CC CC CC CC CC CC CC CC CC CC CC ................
00415150 CC CC CC CC CC CC CC CC CC CC CC CC CC CC CC CC ................
00415160 CC CC CC CC CC CC CC CC CC CC CC CC CC CC CC CC ................
00415170 CC CC CC CC CC CC CC CC CC CC CC CC CC CC CC CC ................
00415180 CC CC CC CC CC CC CC CC CC CC CC CC CC CC CC CC ................
00415190 CC CC CC CC CC CC CC CC CC CC CC CC CC CC CC CC ................
004151A0 CC CC CC CC CC CC CC CC CC CC CC CC CC CC CC CC ................
004151B0 CC CC CC CC CC CC CC CC CC CC CC CC CC CC CC CC ................
004151C0 CC CC CC CC CC CC CC CC CC CC CC CC CC CC CC CC ................
004151D0 CC CC CC CC CC CC CC CC CC CC CC CC CC CC CC CC ................
004151E0 CC CC CC CC CC CC CC CC CC CC CC CC CC CC CC CC ................
004151F0 CC CC CC CC CC CC CC CC CC CC CC CC CC CC CC CC ................
00415200 55 8B EC 51 8B 45 14 50 8B 4D 10 51 8B 55 0C 52 U..Q.E.P.M.Q.U.R
00415210 8B 45 08 50 E8 17 F5 FF FF 83 C4 10 89 45 FC 8B .E.P.........E..
00415220 4D 08 8B 51 04 83 E2 66 75 2A 8B 45 08 81 38 63 M..Q...fu*.E..8c
00415230 73 6D E0 75 1F 83 7D FC 01 75 19 E8 28 BF FF FF sm.u..}..u..(...
00415240 8B 4D 08 89 08 E8 04 C0 FF FF 8B 55 10 89 10 E8 .M.........U....
00415250 15 BE FF FF 8B 45 FC 8B E5 5D C3 CC CC CC CC CC .....E...]......
00415260 CC CC CC CC CC CC CC CC CC CC CC CC CC CC CC CC ................
00415270 CC CC CC CC CC CC CC CC CC CC CC CC CC CC CC CC ................

l00415280:
	push	ebp
	mov	ebp,esp
	sub	esp,48
	mov	eax,[0041B004]
	xor	eax,ebp
	mov	[ebp-04],eax
	push	ebx
	push	esi
	mov	dword ptr [0041B580],00000000
	mov	eax,[0041B034]
	or	eax,01
	mov	[0041B034],eax
	push	0A
	call	0041106E
	test	eax,eax
	jnz	004152BB

l004152B4:
	xor	eax,eax
	jmp	004155A2

l004152BB:
	mov	dword ptr [ebp-10],00000000
	mov	dword ptr [ebp-0C],00000000
	mov	dword ptr [ebp-08],00000000
	lea	esi,[ebp-20]
	xor	eax,eax
	xor	ecx,ecx
	cpuid
	mov	[esi],eax
	mov	[esi+04],ebx
	mov	[esi+08],ecx
	mov	[esi+0C],edx
	mov	ecx,00000004
	imul	edx,ecx,00
	mov	eax,[ebp+edx-20]
	mov	[ebp-38],eax
	mov	ecx,00000004
	shl	ecx,00
	mov	edx,[ebp+ecx-20]
	xor	edx,756E6547
	mov	eax,00000004
	imul	ecx,eax,03
	mov	eax,[ebp+ecx-20]
	xor	eax,49656E69
	or	edx,eax
	mov	ecx,00000004
	shl	ecx,01
	mov	eax,[ebp+ecx-20]
	xor	eax,6C65746E
	or	edx,eax
	jnz	00415335

l0041532C:
	mov	dword ptr [ebp-2C],00000001
	jmp	0041533C

l00415335:
	mov	dword ptr [ebp-2C],00000000

l0041533C:
	mov	cl,[ebp-2C]
	mov	[ebp-21],cl
	lea	esi,[ebp-20]
	mov	eax,00000001
	xor	ecx,ecx
	cpuid
	mov	[esi],eax
	mov	[esi+04],ebx
	mov	[esi+08],ecx
	mov	[esi+0C],edx
	mov	edx,00000004
	imul	eax,edx,00
	mov	ecx,[ebp+eax-20]
	mov	[ebp-28],ecx
	movzx	edx,byte ptr [ebp-21]
	test	edx,edx
	jz	004153DF

l00415370:
	mov	eax,[ebp-28]
	and	eax,0FFF3FF0
	cmp	eax,000106C0
	jz	004153D2

l0041537F:
	mov	ecx,[ebp-28]
	and	ecx,0FFF3FF0
	cmp	ecx,00020660
	jz	004153D2

l00415390:
	mov	edx,[ebp-28]
	and	edx,0FFF3FF0
	cmp	edx,00020670
	jz	004153D2

l004153A1:
	mov	eax,[ebp-28]
	and	eax,0FFF3FF0
	cmp	eax,00030650
	jz	004153D2

l004153B0:
	mov	ecx,[ebp-28]
	and	ecx,0FFF3FF0
	cmp	ecx,00030660
	jz	004153D2

l004153C1:
	mov	edx,[ebp-28]
	and	edx,0FFF3FF0
	cmp	edx,00030670
	jnz	004153DF

l004153D2:
	mov	eax,[0041B584]
	or	eax,01
	mov	[0041B584],eax

l004153DF:
	mov	ecx,00000004
	imul	edx,ecx,03
	mov	eax,00000004
	imul	ecx,eax,00
	mov	edx,[ebp+edx-20]
	mov	[ebp+ecx-10],edx
	mov	eax,00000004
	shl	eax,01
	mov	ecx,00000004
	shl	ecx,00
	mov	edx,[ebp+eax-20]
	mov	[ebp+ecx-10],edx
	cmp	dword ptr [ebp-38],07
	jl	00415465

l00415414:
	lea	esi,[ebp-20]
	mov	eax,00000007
	xor	ecx,ecx
	cpuid
	mov	[esi],eax
	mov	[esi+04],ebx
	mov	[esi+08],ecx
	mov	[esi+0C],edx
	mov	eax,00000004
	shl	eax,00
	mov	ecx,00000004
	shl	ecx,01
	mov	edx,[ebp+eax-20]
	mov	[ebp+ecx-10],edx
	mov	eax,00000004
	shl	eax,00
	mov	ecx,[ebp+eax-20]
	and	ecx,00000200
	jz	00415465

l00415456:
	mov	edx,[0041B584]
	or	edx,02
	mov	[0041B584],edx

l00415465:
	mov	dword ptr [0041B580],00000001
	mov	eax,[0041B034]
	or	eax,02
	mov	[0041B034],eax
	mov	ecx,00000004
	shl	ecx,00
	mov	edx,[ebp+ecx-10]
	and	edx,00100000
	jz	004155A0

l00415494:
	mov	dword ptr [0041B580],00000002
	mov	eax,[0041B034]
	or	eax,04
	mov	[0041B034],eax
	mov	ecx,00000004
	shl	ecx,00
	mov	edx,[ebp+ecx-10]
	and	edx,08000000
	jz	004155A0

l004154C3:
	mov	eax,00000004
	shl	eax,00
	mov	ecx,[ebp+eax-10]
	and	ecx,10000000
	jz	004155A0

l004154DB:
	xor	ecx,ecx
	xgetbv
	mov	[ebp-34],eax
	mov	[ebp-30],edx
	mov	edx,[ebp-34]
	mov	eax,[ebp-30]
	and	edx,06
	and	eax,00
	mov	[ebp-40],edx
	mov	[ebp-3C],eax
	cmp	dword ptr [ebp-40],06
	jnz	004155A0

l00415502:
	cmp	dword ptr [ebp-3C],00
	jnz	004155A0

l0041550C:
	mov	dword ptr [0041B580],00000003
	mov	ecx,[0041B034]
	or	ecx,08
	mov	[0041B034],ecx
	mov	edx,00000004
	shl	edx,01
	mov	eax,[ebp+edx-10]
	and	eax,20
	jz	004155A0

l00415535:
	mov	dword ptr [0041B580],00000005
	mov	ecx,[0041B034]
	or	ecx,20
	mov	[0041B034],ecx
	mov	edx,00000004
	shl	edx,01
	mov	eax,[ebp+edx-10]
	and	eax,D0030000
	cmp	eax,D0030000
	jnz	004155A0

l00415565:
	mov	ecx,[ebp-34]
	mov	edx,[ebp-30]
	and	ecx,000000E0
	and	edx,00
	mov	[ebp-48],ecx
	mov	[ebp-44],edx
	cmp	dword ptr [ebp-48],000000E0
	jnz	004155A0

l00415583:
	cmp	dword ptr [ebp-44],00
	jnz	004155A0

l00415589:
	mov	dword ptr [0041B580],00000006
	mov	eax,[0041B034]
	or	eax,40
	mov	[0041B034],eax

l004155A0:
	xor	eax,eax

l004155A2:
	pop	esi
	pop	ebx
	mov	ecx,[ebp-04]
	xor	ecx,ebp
	call	00411249
	mov	esp,ebp
	pop	ebp
	ret
004155B2       CC CC CC CC CC CC CC CC CC CC CC CC CC CC   ..............
004155C0 CC CC CC CC CC CC CC CC CC CC CC CC CC CC CC CC ................
004155D0 CC CC CC CC CC CC CC CC CC CC CC CC CC CC CC CC ................
004155E0 CC CC CC CC CC CC CC CC CC CC CC CC CC CC CC CC ................
004155F0 CC CC CC CC CC CC CC CC CC CC CC CC CC CC CC CC ................
00415600 CC CC CC CC CC CC CC CC CC CC CC CC CC CC CC CC ................
00415610 CC CC CC CC CC CC CC CC CC CC CC CC CC CC CC CC ................
00415620 CC CC CC CC CC CC CC CC CC CC CC CC CC CC CC CC ................
00415630 CC CC CC CC CC CC CC CC CC CC CC CC CC CC CC CC ................
00415640 CC CC CC CC CC CC CC CC CC CC CC CC CC CC CC CC ................
00415650 CC CC CC CC CC CC CC CC CC CC CC CC CC CC CC CC ................
00415660 CC CC CC CC CC CC CC CC CC CC CC CC CC CC CC CC ................
00415670 CC CC CC CC CC CC CC CC CC CC CC CC CC CC CC CC ................

l00415680:
	push	ebp
	mov	ebp,esp
	push	ecx
	cmp	dword ptr [0041B038],00
	jz	00415696

l0041568D:
	mov	dword ptr [ebp-04],00000001
	jmp	0041569D

l00415696:
	mov	dword ptr [ebp-04],00000000

l0041569D:
	mov	eax,[ebp-04]
	mov	esp,ebp
	pop	ebp
	ret
004156A4             CC CC CC CC CC CC CC CC CC FF 25 48     ..........%H
004156B0 C1 41 00 FF 25 44 C1 41 00 FF 25 2C C1 41 00 FF .A..%D.A..%,.A..
004156C0 25 30 C1 41 00 FF 25 34 C1 41 00 FF 25 38 C1 41 %0.A..%4.A..%8.A
004156D0 00 FF 25 3C C1 41 00 FF 25 40 C1 41 00 FF 25 E4 ..%<.A..%@.A..%.
004156E0 C1 41 00 FF 25 E0 C1 41 00 FF 25 DC C1 41 00 FF .A..%..A..%..A..
004156F0 25 D8 C1 41 00 FF 25 D4 C1 41 00 FF 25 D0 C1 41 %..A..%..A..%..A
00415700 00 FF 25 CC C1 41 00 FF 25 C8 C1 41 00 FF 25 C4 ..%..A..%..A..%.
00415710 C1 41 00 FF 25 C0 C1 41 00 FF 25 BC C1 41 00 FF .A..%..A..%..A..
00415720 25 B8 C1 41 00 FF 25 B4 C1 41 00 FF 25 B0 C1 41 %..A..%..A..%..A
00415730 00 FF 25 04 C2 41 00 FF 25 A8 C1 41 00 FF 25 A4 ..%..A..%..A..%.
00415740 C1 41 00 FF 25 00 C2 41 00 FF 25 08 C2 41 00 FF .A..%..A..%..A..
00415750 25 0C C2 41 00 FF 25 FC C1 41 00 FF 25 F8 C1 41 %..A..%..A..%..A
00415760 00 FF 25 F4 C1 41 00 FF 25 F0 C1 41 00 FF 25 EC ..%..A..%..A..%.
00415770 C1 41 00 FF 25 AC C1 41 00 FF 25 A0 C1 41 00 FF .A..%..A..%..A..
00415780 25 E8 C1 41 00 FF 25 7C C1 41 00 FF 25 80 C1 41 %..A..%|.A..%..A
00415790 00 FF 25 84 C1 41 00 FF 25 88 C1 41 00 FF 25 8C ..%..A..%..A..%.
004157A0 C1 41 00 FF 25 90 C1 41 00 FF 25 94 C1 41 00 FF .A..%..A..%..A..
004157B0 25 98 C1 41 00 FF 25 9C C1 41 00 CC CC CC CC CC %..A..%..A......

;; fn004157C0: 004157C0
;;   Called from:
;;     004159B9 (in fn00415920)
fn004157C0 proc
	push	ebp
	mov	ebp,esp
	mov	eax,[ebp+08]
	push	esi
	push	edi
	xor	esi,esi
	xor	edi,edi
	cmp	byte ptr [eax],00
	jz	004158A6

l004157D5:
	push	ebx

l004157D6:
	mov	cl,[eax]
	cmp	cl,20
	jz	004157E2

l004157DD:
	cmp	cl,09
	jnz	004157E5

l004157E2:
	inc	eax
	jmp	004157D6

l004157E5:
	cmp	cl,22
	jnz	0041581D

l004157EA:
	mov	cl,[eax+01]
	inc	eax
	test	cl,cl
	jz	004157FF

l004157F2:
	mov	edx,[ebp+0C]
	test	edx,edx
	jz	004157FE

l004157F9:
	mov	[edx+edi*4],eax
	mov	cl,[eax]

l004157FE:
	inc	edi

l004157FF:
	mov	edx,eax
	test	cl,cl
	jz	00415819

l00415805:
	cmp	cl,22
	jnz	0041580F

l0041580A:
	cmp	byte ptr [edx],5C
	jnz	00415819

l0041580F:
	mov	cl,[eax+01]
	mov	edx,eax
	inc	eax
	test	cl,cl
	jnz	00415805

l00415819:
	mov	dl,[eax]
	jmp	00415848

l0041581D:
	test	cl,cl
	jz	00415859

l00415821:
	mov	edx,[ebp+0C]
	test	edx,edx
	jz	0041582D

l00415828:
	mov	[edx+edi*4],eax
	mov	cl,[eax]

l0041582D:
	inc	edi
	test	cl,cl
	jz	00415859

l00415832:
	mov	dl,cl
	cmp	cl,20
	jz	00415848

l00415839:
	cmp	cl,09
	jz	00415848

l0041583E:
	mov	dl,[eax+01]
	inc	eax
	mov	cl,dl
	test	dl,dl
	jnz	00415832

l00415848:
	mov	ecx,[ebp+0C]
	test	dl,dl
	jz	0041585C

l0041584F:
	test	ecx,ecx
	jz	00415856

l00415853:
	mov	byte ptr [eax],00

l00415856:
	inc	eax
	jmp	0041585C

l00415859:
	mov	ecx,[ebp+0C]

l0041585C:
	test	ecx,ecx
	jz	0041589A

l00415860:
	cmp	esi,edi
	jz	0041589A

l00415864:
	mov	esi,[ecx+esi*4]
	xor	edx,edx
	mov	cl,[esi]
	test	cl,cl
	jz	0041589A

l0041586F:
	nop

l00415870:
	cmp	cl,22
	jnz	00415890

l00415875:
	test	edx,edx
	jz	00415890

l00415879:
	cmp	byte ptr [edx],5C
	jnz	00415890

l0041587E:
	mov	ecx,esi
	mov	bl,22

l00415882:
	mov	[edx],bl
	mov	edx,ecx
	mov	bl,[ecx+01]
	inc	ecx
	test	bl,bl
	jnz	00415882

l0041588E:
	mov	[edx],bl

l00415890:
	mov	cl,[esi+01]
	mov	edx,esi
	inc	esi
	test	cl,cl
	jnz	00415870

l0041589A:
	cmp	byte ptr [eax],00
	mov	esi,edi
	jnz	004157D6

l004158A5:
	pop	ebx

l004158A6:
	mov	eax,[ebp+0C]
	test	eax,eax
	jz	004158B4

l004158AD:
	mov	dword ptr [eax+edi*4],00000000

l004158B4:
	mov	eax,edi
	pop	edi
	pop	esi
	pop	ebp
	ret
004158BA                               CC CC CC CC CC CC           ......
004158C0 CC CC CC CC CC CC CC CC CC CC CC CC CC CC CC CC ................
004158D0 CC CC CC CC CC CC CC CC CC CC CC CC CC CC CC CC ................
004158E0 CC CC CC CC CC CC CC CC CC CC CC CC CC CC CC CC ................
004158F0 CC CC CC CC CC CC CC CC CC CC CC CC CC CC CC CC ................

l00415900:
	call	00415920
	ret	0010
00415908                         CC CC CC CC CC CC CC CC         ........
00415910 E9 0B 00 00 00 CC CC CC CC CC CC CC CC CC CC CC ................

;; fn00415920: 00415920
;;   Called from:
;;     00415900 (in fn00411064)
fn00415920 proc
	push	ebp
	mov	ebp,esp
	sub	esp,08
	push	ebx
	push	esi
	push	edi
	call	dword ptr [0041C054]
	mov	edi,eax
	mov	esi,00000002
	mov	edx,edi
	movzx	eax,word ptr [edi]
	test	ax,ax
	jz	0041595D

l00415940:
	mov	ecx,eax

l00415942:
	cmp	cx,20
	jz	0041594E

l00415948:
	cmp	cx,09
	jnz	0041594F

l0041594E:
	inc	esi

l0041594F:
	movzx	eax,word ptr [edx+02]
	add	edx,02
	mov	ecx,eax
	test	ax,ax
	jnz	00415942

l0041595D:
	push	00
	push	00
	push	00
	push	00
	push	FF
	push	edi
	push	00
	push	0000FDE9
	call	dword ptr [0041C010]
	mov	[ebp-04],eax
	test	eax,eax
	jle	004159F5

l0041597C:
	push	04
	lea	eax,[eax+esi*4]
	push	00003000
	push	eax
	push	00
	mov	[ebp-08],eax
	call	dword ptr [0041C050]
	mov	ebx,eax
	test	ebx,ebx
	jz	004159F5

l00415998:
	push	00
	push	00
	push	dword ptr [ebp-04]
	lea	esi,[ebx+esi*4]
	push	esi
	push	FF
	push	edi
	push	00
	push	0000FDE9
	call	dword ptr [0041C010]
	test	esi,esi
	jz	004159F5

l004159B7:
	push	ebx
	push	esi
	call	004157C0
	mov	esi,eax
	call	004111CC
	push	ebx
	push	esi
	call	00411307
	mov	esi,[0041C04C]
	add	esp,10
	mov	edi,eax
	push	00004000
	push	dword ptr [ebp-08]
	push	ebx
	call	esi
	push	00008000
	push	00
	push	ebx
	call	esi
	mov	eax,edi
	pop	edi
	pop	esi
	pop	ebx
	mov	esp,ebp
	pop	ebp
	ret

l004159F5:
	push	00
	push	00419544
	push	00419564
	push	10
	call	0041140B
	add	esp,10
	xor	eax,eax
	pop	edi
	pop	esi
	pop	ebx
	mov	esp,ebp
	pop	ebp
	ret
00415A14             CC CC CC CC CC CC CC CC CC CC CC CC     ............
00415A20 CC CC CC CC CC CC CC CC CC CC CC CC CC CC CC CC ................
00415A30 CC CC CC CC CC CC CC CC CC CC CC CC CC CC CC CC ................
00415A40 CC CC CC CC CC CC CC CC CC CC CC CC CC CC CC CC ................
00415A50 CC CC CC CC CC CC CC CC CC CC CC CC CC CC CC CC ................
00415A60 E9 BB FE FF FF FF 25 58 C0 41 00 FF 25 04 C0 41 ......%X.A..%..A
00415A70 00 FF 25 08 C0 41 00 FF 25 0C C0 41 00 FF 25 10 ..%..A..%..A..%.
00415A80 C0 41 00 FF 25 14 C0 41 00 FF 25 18 C0 41 00 FF .A..%..A..%..A..
00415A90 25 1C C0 41 00 FF 25 20 C0 41 00 FF 25 24 C0 41 %..A..% .A..%$.A
00415AA0 00 FF 25 28 C0 41 00 FF 25 2C C0 41 00 FF 25 48 ..%(.A..%,.A..%H
00415AB0 C0 41 00 FF 25 7C C0 41 00 FF 25 78 C0 41 00 FF .A..%|.A..%x.A..
00415AC0 25 74 C0 41 00 FF 25 70 C0 41 00 FF 25 6C C0 41 %t.A..%p.A..%l.A
00415AD0 00 FF 25 68 C0 41 00 FF 25 64 C0 41 00 FF 25 60 ..%h.A..%d.A..%`
00415AE0 C0 41 00 FF 25 5C C0 41 00 FF 25 00 C0 41 00 FF .A..%\.A..%..A..
00415AF0 25 54 C0 41 00 FF 25 50 C0 41 00 FF 25 4C C0 41 %T.A..%P.A..%L.A
00415B00 00 FF 25 C4 C0 41 00 FF 25 F4 C0 41 00 CC CC CC ..%..A..%..A....

l00415B10:
	push	ebp
	mov	ebp,esp
	mov	al,01
	pop	ebp
	ret
00415B17                      CC CC CC CC CC CC CC CC CC        .........
00415B20 55 8B EC B0 01 5D C3 CC CC CC CC CC CC CC CC CC U....]..........
00415B30 55 8B EC B0 01 5D C3 CC CC CC CC CC CC CC CC CC U....]..........

l00415B40:
	push	ebp
	mov	ebp,esp
	mov	al,01
	pop	ebp
	ret
00415B47                      CC CC CC CC CC CC CC CC CC        .........
00415B50 55 8B EC B0 01 5D C3 CC CC CC CC CC CC CC CC CC U....]..........
00415B60 55 8B EC 33 C0 5D C3 CC CC CC CC CC CC CC CC CC U..3.]..........
00415B70 55 8B EC 83 EC 54 83 3D 80 B5 41 00 01 7D 08 8B U....T.=..A..}..
00415B80 45 08 E9 19 01 00 00 81 7D 08 B4 02 00 C0 74 11 E.......}.....t.
00415B90 81 7D 08 B5 02 00 C0 74 08 8B 45 08 E9 FF 00 00 .}.....t..E.....
00415BA0 00 C7 45 F4 01 00 00 00 C7 45 F0 02 00 00 00 C7 ..E......E......
00415BB0 45 EC 04 00 00 00 C7 45 E8 08 00 00 00 C7 45 E4 E......E......E.
00415BC0 10 00 00 00 C7 45 E0 20 00 00 00 C7 45 DC 3F 00 .....E. ....E.?.
00415BD0 00 00 C7 45 D8 80 00 00 00 C7 45 D4 00 01 00 00 ...E......E.....
00415BE0 C7 45 D0 00 02 00 00 C7 45 CC 00 04 00 00 C7 45 .E......E......E
00415BF0 C8 00 08 00 00 C7 45 C4 00 10 00 00 C7 45 C0 81 ......E......E..
00415C00 00 00 00 C7 45 BC 02 01 00 00 C7 45 B8 04 02 00 ....E......E....
00415C10 00 C7 45 B4 08 04 00 00 C7 45 B0 10 08 00 00 C7 ..E......E......
00415C20 45 AC 20 10 00 00 0F AE 5D F8 8B 45 F8 83 F0 3F E. .....]..E...?
00415C30 89 45 FC 8B 4D FC 81 E1 81 00 00 00 75 07 B8 90 .E..M.......u...
00415C40 00 00 C0 EB 5B 8B 55 FC 81 E2 04 02 00 00 75 07 ....[.U.......u.
00415C50 B8 8E 00 00 C0 EB 49 8B 45 FC 25 02 01 00 00 75 ......I.E.%....u
00415C60 07 B8 90 00 00 C0 EB 38 8B 4D FC 81 E1 08 04 00 .......8.M......
00415C70 00 75 07 B8 91 00 00 C0 EB 26 8B 55 FC 81 E2 10 .u.......&.U....
00415C80 08 00 00 75 07 B8 93 00 00 C0 EB 14 8B 45 FC 25 ...u.........E.%
00415C90 20 10 00 00 75 07 B8 8F 00 00 C0 EB 03 8B 45 08  ...u.........E.
00415CA0 8B E5 5D C3 CC CC CC CC CC CC CC CC CC CC CC CC ..].............
00415CB0 55 8B EC 81 EC 28 01 00 00 53 56 57 8D BD D8 FE U....(...SVW....
00415CC0 FF FF B9 4A 00 00 00 B8 CC CC CC CC F3 AB A1 04 ...J............
00415CD0 B0 41 00 33 C5 89 45 FC B9 15 D0 41 00 E8 A3 B5 .A.3..E....A....
00415CE0 FF FF C7 45 F4 00 00 00 00 C6 45 CB 00 C7 45 B0 ...E......E...E.
00415CF0 00 00 00 00 C7 45 F4 00 00 00 00 8B 45 08 8B 4D .....E......E..M
00415D00 F4 3B 08 0F 83 0C 01 00 00 C7 45 B0 00 00 00 00 .;........E.....
00415D10 C6 45 CB 00 8B F4 6A 00 8D 45 BC 50 6A 01 8D 4D .E....j..E.Pj..M
00415D20 EB 51 8B 55 08 8B 42 10 50 FF 15 30 C0 41 00 3B .Q.U..B.P..0.A.;
00415D30 F4 E8 59 B5 FF FF 0F BE 45 EB 83 F8 0D 75 04 C6 ..Y.....E....u..
00415D40 45 CB 01 83 7D B0 0A 75 02 EB 1B 8B 45 B0 8A 4D E...}..u....E..M
00415D50 EB 88 4C 05 D4 8B 45 B0 83 C0 01 89 45 B0 0F B6 ..L...E.....E...
00415D60 45 CB 85 C0 74 AE 8B 45 08 0F B7 48 06 F3 0F 2A E...t..E...H...*
00415D70 C1 8B F4 8D 55 D4 52 F3 0F 11 85 DC FE FF FF FF ....U.R.........
00415D80 15 DC C1 41 00 83 C4 04 3B F4 E8 00 B5 FF FF F3 ...A....;.......
00415D90 0F 2A C0 8B 45 08 0F B7 48 06 F3 0F 2A C9 8B 55 .*..E...H...*..U
00415DA0 08 0F B7 42 14 F3 0F 2A D0 F3 0F 5E CA F3 0F 59 ...B...*...^...Y
00415DB0 C1 F3 0F 10 8D DC FE FF FF F3 0F 5C C8 F3 0F 2C ...........\...,
00415DC0 C9 89 8D D8 FE FF FF 8B 55 08 8B 42 0C 8B 4D F4 ........U..B..M.
00415DD0 8B 95 D8 FE FF FF 89 54 C8 04 8B 85 D8 FE FF FF .......T........
00415DE0 89 45 A4 8B 45 08 8B 48 0C 8B 55 F4 8B 45 F4 89 .E..E..H..U..E..
00415DF0 04 D1 8B 4D F4 83 C1 01 89 4D F4 83 7D BC 00 74 ...M.....M..}..t
00415E00 06 83 7D B0 0A 75 09 8B 45 F4 83 E8 01 89 45 F4 ..}..u..E.....E.
00415E10 E9 E6 FE FF FF 8B 45 08 C6 40 04 01 8B 45 08 C6 ......E..@...E..
00415E20 40 05 00 52 8B CD 50 8D 15 54 5E 41 00 E8 85 B4 @..R..P..T^A....
00415E30 FF FF 58 5A 5F 5E 5B 8B 4D FC 33 CD E8 08 B4 FF ..XZ_^[.M.3.....
00415E40 FF 81 C4 28 01 00 00 3B EC E8 41 B4 FF FF 8B E5 ...(...;..A.....
00415E50 5D C3 66 90 03 00 00 00 5C 5E 41 00 EB FF FF FF ].f.....\^A.....
00415E60 01 00 00 00 95 5E 41 00 D4 FF FF FF 0A 00 00 00 .....^A.........
00415E70 8D 5E 41 00 BC FF FF FF 04 00 00 00 80 5E 41 00 .^A..........^A.
00415E80 4E 75 6D 42 79 74 65 73 52 65 61 64 00 64 61 74 NumBytesRead.dat
00415E90 61 42 75 66 00 66 69 6C 65 5F 72 42 75 66 00 CC aBuf.file_rBuf..
00415EA0 CC CC CC CC CC CC CC CC CC CC CC CC CC CC CC CC ................
00415EB0 CC CC CC CC CC CC CC CC CC CC CC CC CC CC CC CC ................
00415EC0 CC CC CC CC CC CC CC CC CC CC CC CC CC CC CC CC ................
00415ED0 CC CC CC CC CC CC CC CC CC CC CC CC CC CC CC CC ................
00415EE0 CC CC CC CC CC CC CC CC CC CC CC CC CC CC CC CC ................
00415EF0 CC CC CC CC CC CC CC CC CC CC CC CC CC CC CC CC ................
00415F00 CC CC CC CC CC CC CC CC CC CC CC CC CC CC CC CC ................
00415F10 CC CC CC CC CC CC CC CC CC CC CC CC CC CC CC CC ................
00415F20 CC CC CC CC CC CC CC CC CC CC CC CC CC CC CC CC ................
00415F30 CC CC CC CC CC CC CC CC CC CC CC CC CC CC CC CC ................
00415F40 CC CC CC CC CC CC CC CC CC CC CC CC CC CC CC CC ................
00415F50 CC CC CC CC CC CC CC CC CC CC CC CC CC CC CC CC ................
00415F60 CC CC CC CC CC CC CC CC CC CC CC CC CC CC CC CC ................
00415F70 CC CC CC CC CC CC CC CC CC CC CC CC CC CC CC CC ................
00415F80 CC CC CC CC CC CC CC CC CC CC CC CC CC CC CC CC ................
00415F90 CC CC CC CC CC CC CC CC CC CC CC CC CC CC CC CC ................
00415FA0 CC CC CC CC CC CC CC CC CC CC CC CC CC CC CC CC ................
00415FB0 CC CC CC CC CC CC CC CC CC CC CC CC CC CC CC CC ................
00415FC0 CC CC CC CC CC CC CC CC CC CC CC CC CC CC CC CC ................
00415FD0 CC CC CC CC CC CC CC CC CC CC CC CC CC CC CC CC ................
00415FE0 CC CC CC CC CC CC CC CC CC CC CC CC CC CC CC CC ................
00415FF0 CC CC CC CC CC CC CC CC CC CC CC CC CC CC CC CC ................
00416000 CC CC CC CC CC CC CC CC CC CC CC CC CC CC CC CC ................
00416010 CC CC CC CC CC CC CC CC CC CC CC CC CC CC CC CC ................
00416020 CC CC CC CC CC CC CC CC CC CC CC CC CC CC CC CC ................
00416030 CC CC CC CC CC CC CC CC CC CC CC CC CC CC CC CC ................
00416040 CC CC CC CC CC CC CC CC CC CC CC CC CC CC CC CC ................
00416050 CC CC CC CC CC CC CC CC CC CC CC CC CC CC CC CC ................
00416060 CC CC CC CC CC CC CC CC CC CC CC CC CC CC CC CC ................
00416070 CC CC CC CC CC CC CC CC CC CC CC CC CC CC CC CC ................
00416080 CC CC CC CC CC CC CC CC CC CC CC CC CC CC CC CC ................
00416090 CC CC CC CC CC CC CC CC CC CC CC CC CC CC CC CC ................
004160A0 CC CC CC CC CC CC CC CC CC CC CC CC CC CC CC CC ................
004160B0 CC CC CC CC CC CC CC CC CC CC CC CC CC CC CC CC ................
004160C0 CC CC CC CC CC CC CC CC CC CC CC CC CC CC CC CC ................
004160D0 CC CC CC CC CC CC CC CC CC CC CC CC CC CC CC CC ................
004160E0 CC CC CC CC CC CC CC CC CC CC CC CC CC CC CC CC ................
004160F0 CC CC CC CC CC CC CC CC CC CC CC CC CC CC CC CC ................
00416100 CC CC CC CC CC CC CC CC CC CC CC CC CC CC CC CC ................
00416110 CC CC CC CC CC CC CC CC CC CC CC CC CC CC CC CC ................
00416120 CC CC CC CC CC CC CC CC CC CC CC CC CC CC CC CC ................
00416130 CC CC CC CC CC CC CC CC CC CC CC CC CC CC CC CC ................
00416140 CC CC CC CC CC CC CC CC CC CC CC CC CC CC CC CC ................
00416150 CC CC CC CC CC CC CC CC CC CC CC CC CC CC CC CC ................
00416160 CC CC CC CC CC CC CC CC CC CC CC CC CC CC CC CC ................
00416170 CC CC CC CC CC CC CC CC CC CC CC CC CC CC CC CC ................
00416180 CC CC CC CC CC CC CC CC CC CC CC CC CC CC CC CC ................
00416190 CC CC CC CC CC CC CC CC CC CC CC CC CC CC CC CC ................
004161A0 CC CC CC CC CC CC CC CC CC CC CC CC CC CC CC CC ................
004161B0 CC CC CC CC CC CC CC CC CC CC CC CC CC CC CC CC ................
004161C0 CC CC CC CC CC CC CC CC CC CC CC CC CC CC CC CC ................
004161D0 CC CC CC CC CC CC CC CC CC CC CC CC CC CC CC CC ................
004161E0 CC CC CC CC CC CC CC CC CC CC CC CC CC CC CC CC ................
004161F0 CC CC CC CC CC CC CC CC CC CC CC CC CC CC CC CC ................
00416200 CC CC CC CC CC CC CC CC CC CC CC CC CC CC CC CC ................
00416210 CC CC CC CC CC CC CC CC CC CC CC CC CC CC CC CC ................
00416220 CC CC CC CC CC CC CC CC CC CC CC CC CC CC CC CC ................
00416230 CC CC CC CC CC CC CC CC CC CC CC CC CC CC CC CC ................
00416240 CC CC CC CC CC CC CC CC CC CC CC CC CC CC CC CC ................
00416250 CC CC CC CC CC CC CC CC CC CC CC CC CC CC CC CC ................
00416260 CC CC CC CC CC CC CC CC CC CC CC CC CC CC CC CC ................
00416270 CC CC CC CC CC CC CC CC CC CC CC CC CC CC CC CC ................
00416280 CC CC CC CC CC CC CC CC CC CC CC CC CC CC CC CC ................
00416290 CC CC CC CC CC CC CC CC CC CC CC CC CC CC CC CC ................
004162A0 CC CC CC CC CC CC CC CC CC CC CC CC CC CC CC CC ................
004162B0 CC CC CC CC CC CC CC CC CC CC CC CC CC CC CC CC ................
004162C0 CC CC CC CC CC CC CC CC CC CC CC CC CC CC CC CC ................
004162D0 CC CC CC CC CC CC CC CC CC CC CC CC CC CC CC CC ................
004162E0 CC CC CC CC CC CC CC CC CC CC CC CC CC CC CC CC ................
004162F0 CC CC CC CC CC CC CC CC CC CC CC CC CC CC CC CC ................
00416300 CC CC CC CC CC CC CC CC CC CC CC CC CC CC CC CC ................
00416310 CC CC CC CC CC CC CC CC CC CC CC CC CC CC CC CC ................
00416320 CC CC CC CC CC CC CC CC CC CC CC CC CC CC CC CC ................
00416330 CC CC CC CC CC CC CC CC CC CC CC CC CC CC CC CC ................
00416340 CC CC CC CC CC CC CC CC CC CC CC CC CC CC CC CC ................
00416350 CC CC CC CC CC CC CC CC CC CC CC CC CC CC CC CC ................
00416360 CC CC CC CC CC CC CC CC CC CC CC CC CC CC CC CC ................
00416370 CC CC CC CC CC CC CC CC CC CC CC CC CC CC CC CC ................
00416380 CC CC CC CC CC CC CC CC CC CC CC CC CC CC CC CC ................
00416390 CC CC CC CC CC CC CC CC CC CC CC CC CC CC CC CC ................
004163A0 CC CC CC CC CC CC CC CC CC CC CC CC CC CC CC CC ................
004163B0 CC CC CC CC CC CC CC CC CC CC CC CC CC CC CC CC ................
004163C0 CC CC CC CC CC CC CC CC CC CC CC CC CC CC CC CC ................
004163D0 CC CC CC CC CC CC CC CC CC CC CC CC CC CC CC CC ................
004163E0 CC CC CC CC CC CC CC CC CC CC CC CC CC CC CC CC ................
004163F0 CC CC CC CC CC CC CC CC CC CC CC CC CC CC CC CC ................
00416400 CC CC CC CC CC CC CC CC CC CC CC CC CC CC CC CC ................
00416410 CC CC CC CC CC CC CC CC CC CC CC CC CC CC CC CC ................
00416420 CC CC CC CC CC CC CC CC CC CC CC CC CC CC CC CC ................
00416430 CC CC CC CC CC CC CC CC CC CC CC CC CC CC CC CC ................
00416440 CC CC CC CC CC CC CC CC CC CC CC CC CC CC CC CC ................
00416450 CC CC CC CC CC CC CC CC CC CC CC CC CC CC CC CC ................
00416460 CC CC CC CC CC CC CC CC CC CC CC CC CC CC CC CC ................
00416470 CC CC CC CC CC CC CC CC CC CC CC CC CC CC CC CC ................
00416480 CC CC CC CC CC CC CC CC CC CC CC CC CC CC CC CC ................
00416490 CC CC CC CC CC CC CC CC CC CC CC CC CC CC CC CC ................
004164A0 CC CC CC CC CC CC CC CC CC CC CC CC CC CC CC CC ................
004164B0 CC CC CC CC CC CC CC CC CC CC CC CC CC CC CC CC ................
004164C0 CC CC CC CC CC CC CC CC CC CC CC CC CC CC CC CC ................
004164D0 CC CC CC CC CC CC CC CC CC CC CC CC CC CC CC CC ................
004164E0 CC CC CC CC CC CC CC CC CC CC CC CC CC CC CC CC ................
004164F0 CC CC CC CC CC CC CC CC CC CC CC CC CC CC CC CC ................
00416500 CC CC CC CC CC CC CC CC CC CC CC CC CC CC CC CC ................
00416510 CC CC CC CC CC CC CC CC CC CC CC CC CC CC CC CC ................
00416520 CC CC CC CC CC CC CC CC CC CC CC CC CC CC CC CC ................
00416530 CC CC CC CC CC CC CC CC CC CC CC CC CC CC CC CC ................
00416540 CC CC CC CC CC CC CC CC CC CC CC CC CC CC CC CC ................
00416550 CC CC CC CC CC CC CC CC CC CC CC CC CC CC CC CC ................
00416560 CC CC CC CC CC CC CC CC CC CC CC CC CC CC CC CC ................
00416570 CC CC CC CC CC CC CC CC CC CC CC CC CC CC CC CC ................
00416580 CC CC CC CC CC CC CC CC CC CC CC CC CC CC CC CC ................
00416590 CC CC CC CC CC CC CC CC CC CC CC CC CC CC CC CC ................
004165A0 CC CC CC CC CC CC CC CC CC CC CC CC CC CC CC CC ................
004165B0 CC CC CC CC CC CC CC CC CC CC CC CC CC CC CC CC ................
004165C0 CC CC CC CC CC CC CC CC CC CC CC CC CC CC CC CC ................
004165D0 CC CC CC CC CC CC CC CC CC CC CC CC CC CC CC CC ................
004165E0 CC CC CC CC CC CC CC CC CC CC CC CC CC CC CC CC ................
004165F0 CC CC CC CC CC CC CC CC CC CC CC CC CC CC CC CC ................
00416600 CC CC CC CC CC CC CC CC CC CC CC CC CC CC CC CC ................
00416610 CC CC CC CC CC CC CC CC CC CC CC CC CC CC CC CC ................
00416620 CC CC CC CC CC CC CC CC CC CC CC CC CC CC CC CC ................
00416630 CC CC CC CC CC CC CC CC CC CC CC CC CC CC CC CC ................
00416640 CC CC CC CC CC CC CC CC CC CC CC CC CC CC CC CC ................
00416650 CC CC CC CC CC CC CC CC CC CC CC CC CC CC CC CC ................
00416660 CC CC CC CC CC CC CC CC CC CC CC CC CC CC CC CC ................
00416670 CC CC CC CC CC CC CC CC CC CC CC CC CC CC CC CC ................
00416680 CC CC CC CC CC CC CC CC CC CC CC CC CC CC CC CC ................
00416690 CC CC CC CC CC CC CC CC CC CC CC CC CC CC CC CC ................
004166A0 CC CC CC CC CC CC CC CC CC CC CC CC CC CC CC CC ................
004166B0 CC CC CC CC CC CC CC CC CC CC CC CC CC CC CC CC ................
004166C0 CC CC CC CC CC CC CC CC CC CC CC CC CC CC CC CC ................
004166D0 CC CC CC CC CC CC CC CC CC CC CC CC CC CC CC CC ................
004166E0 CC CC CC CC CC CC CC CC CC CC CC CC CC CC CC CC ................
004166F0 CC CC CC CC CC CC CC CC CC CC CC CC CC CC CC CC ................
00416700 CC CC CC CC CC CC CC CC CC CC CC CC CC CC CC CC ................
00416710 CC CC CC CC CC CC CC CC CC CC CC CC CC CC CC CC ................
00416720 CC CC CC CC CC CC CC CC CC CC CC CC CC CC CC CC ................
00416730 CC CC CC CC CC CC CC CC CC CC CC CC CC CC CC CC ................
00416740 CC CC CC CC CC CC CC CC CC CC CC CC CC CC CC CC ................
00416750 CC CC CC CC CC CC CC CC CC CC CC CC CC CC CC CC ................
00416760 CC CC CC CC CC CC CC CC CC CC CC CC CC CC CC CC ................
00416770 CC CC CC CC CC CC CC CC CC CC CC CC CC CC CC CC ................
00416780 CC CC CC CC CC CC CC CC CC CC CC CC CC CC CC CC ................
00416790 CC CC CC CC CC CC CC CC CC CC CC CC CC CC CC CC ................
004167A0 CC CC CC CC CC CC CC CC CC CC CC CC CC CC CC CC ................
004167B0 CC CC CC CC CC CC CC CC CC CC CC CC CC CC CC CC ................
004167C0 CC CC CC CC CC CC CC CC CC CC CC CC CC CC CC CC ................
004167D0 CC CC CC CC CC CC CC CC CC CC CC CC CC CC CC CC ................
004167E0 CC CC CC CC CC CC CC CC CC CC CC CC CC CC CC CC ................
004167F0 CC CC CC CC CC CC CC CC CC CC CC CC CC CC CC CC ................
00416800 CC CC CC CC CC CC CC CC CC CC CC CC CC CC CC CC ................
00416810 CC CC CC CC CC CC CC CC CC CC CC CC CC CC CC CC ................
00416820 CC CC CC CC CC CC CC CC CC CC CC CC CC CC CC CC ................
00416830 CC CC CC CC CC CC CC CC CC CC CC CC CC CC CC CC ................
00416840 CC CC CC CC CC CC CC CC CC CC CC CC CC CC CC CC ................
00416850 CC CC CC CC CC CC CC CC CC CC CC CC CC CC CC CC ................
00416860 CC CC CC CC CC CC CC CC CC CC CC CC CC CC CC CC ................
00416870 CC CC CC CC CC CC CC CC CC CC CC CC CC CC CC CC ................
00416880 CC CC CC CC CC CC CC CC CC CC CC CC CC CC CC CC ................
00416890 CC CC CC CC CC CC CC CC CC CC CC CC CC CC CC CC ................
004168A0 CC CC CC CC CC CC CC CC CC CC CC CC CC CC CC CC ................
004168B0 CC CC CC CC CC CC CC CC CC CC CC CC CC CC CC CC ................
004168C0 CC CC CC CC CC CC CC CC CC CC CC CC CC CC CC CC ................
004168D0 CC CC CC CC CC CC CC CC CC CC CC CC CC CC CC CC ................
004168E0 CC CC CC CC CC CC CC CC CC CC CC CC CC CC CC CC ................
004168F0 CC CC CC CC CC CC CC CC CC CC CC CC CC CC CC CC ................
00416900 CC CC CC CC CC CC CC CC CC CC CC CC CC CC CC CC ................
00416910 CC CC CC CC CC CC CC CC CC CC CC CC CC CC CC CC ................
00416920 CC CC CC CC CC CC CC CC CC CC CC CC CC CC CC CC ................
00416930 CC CC CC CC CC CC CC CC CC CC CC CC CC CC CC CC ................
00416940 CC CC CC CC CC CC CC CC CC CC CC CC CC CC CC CC ................
00416950 CC CC CC CC CC CC CC CC CC CC CC CC CC CC CC CC ................
00416960 CC CC CC CC CC CC CC CC CC CC CC CC CC CC CC CC ................
00416970 CC CC CC CC CC CC CC CC CC CC CC CC CC CC CC CC ................
00416980 CC CC CC CC CC CC CC CC CC CC CC CC CC CC CC CC ................
00416990 CC CC CC CC CC CC CC CC CC CC CC CC CC CC CC CC ................
004169A0 CC CC CC CC CC CC CC CC CC CC CC CC CC CC CC CC ................
004169B0 CC CC CC CC CC CC CC CC CC CC CC CC CC CC CC CC ................
004169C0 CC CC CC CC CC CC CC CC CC CC CC CC CC CC CC CC ................
004169D0 CC CC CC CC CC CC CC CC CC CC CC CC CC CC CC CC ................
004169E0 CC CC CC CC CC CC CC CC CC CC CC CC CC CC CC CC ................
004169F0 CC CC CC CC CC CC CC CC CC CC CC CC CC CC CC CC ................
00416A00 CC CC CC CC CC CC CC CC CC CC CC CC CC CC CC CC ................
00416A10 CC CC CC CC CC CC CC CC CC CC CC CC CC CC CC CC ................
00416A20 CC CC CC CC CC CC CC CC CC CC CC CC CC CC CC CC ................
00416A30 CC CC CC CC CC CC CC CC CC CC CC CC CC CC CC CC ................
00416A40 CC CC CC CC CC CC CC CC CC CC CC CC CC CC CC CC ................
00416A50 CC CC CC CC CC CC CC CC CC CC CC CC CC CC CC CC ................
00416A60 CC CC CC CC CC CC CC CC CC CC CC CC CC CC CC CC ................
00416A70 CC CC CC CC CC CC CC CC CC CC CC CC CC CC CC CC ................
00416A80 CC CC CC CC CC CC CC CC CC CC CC CC CC CC CC CC ................
00416A90 CC CC CC CC CC CC CC CC CC CC CC CC CC CC CC CC ................
00416AA0 CC CC CC CC CC CC CC CC CC CC CC CC CC CC CC CC ................
00416AB0 CC CC CC CC CC CC CC CC CC CC CC CC CC CC CC CC ................
00416AC0 CC CC CC CC CC CC CC CC CC CC CC CC CC CC CC CC ................
00416AD0 CC CC CC CC CC CC CC CC CC CC CC CC CC CC CC CC ................
00416AE0 CC CC CC CC CC CC CC CC CC CC CC CC CC CC CC CC ................
00416AF0 CC CC CC CC CC CC CC CC CC CC CC CC CC CC CC CC ................
00416B00 CC CC CC CC CC CC CC CC CC CC CC CC CC CC CC CC ................
00416B10 CC CC CC CC CC CC CC CC CC CC CC CC CC CC CC CC ................
00416B20 CC CC CC CC CC CC CC CC CC CC CC CC CC CC CC CC ................
00416B30 CC CC CC CC CC CC CC CC CC CC CC CC CC CC CC CC ................
00416B40 CC CC CC CC CC CC CC CC CC CC CC CC CC CC CC CC ................
00416B50 CC CC CC CC CC CC CC CC CC CC CC CC CC CC CC CC ................
00416B60 CC CC CC CC CC CC CC CC CC CC CC CC CC CC CC CC ................
00416B70 CC CC CC CC CC CC CC CC CC CC CC CC CC CC CC CC ................
00416B80 CC CC CC CC CC CC CC CC CC CC CC CC CC CC CC CC ................
00416B90 CC CC CC CC CC CC CC CC CC CC CC CC CC CC CC CC ................
00416BA0 CC CC CC CC CC CC CC CC CC CC CC CC CC CC CC CC ................
00416BB0 CC CC CC CC CC CC CC CC CC CC CC CC CC CC CC CC ................
00416BC0 CC CC CC CC CC CC CC CC CC CC CC CC CC CC CC CC ................
00416BD0 CC CC CC CC CC CC CC CC CC CC CC CC CC CC CC CC ................
00416BE0 CC CC CC CC CC CC CC CC CC CC CC CC CC CC CC CC ................
00416BF0 CC CC CC CC CC CC CC CC CC CC CC CC CC CC CC CC ................
00416C00 CC CC CC CC CC CC CC CC CC CC CC CC CC CC CC CC ................
00416C10 CC CC CC CC CC CC CC CC CC CC CC CC CC CC CC CC ................
00416C20 CC CC CC CC CC CC CC CC CC CC CC CC CC CC CC CC ................
00416C30 CC CC CC CC CC CC CC CC CC CC CC CC CC CC CC CC ................
00416C40 CC CC CC CC CC CC CC CC CC CC CC CC CC CC CC CC ................
00416C50 CC CC CC CC CC CC CC CC CC CC CC CC CC CC CC CC ................
00416C60 CC CC CC CC CC CC CC CC CC CC CC CC CC CC CC CC ................
00416C70 CC CC CC CC CC CC CC CC CC CC CC CC CC CC CC CC ................
00416C80 CC CC CC CC CC CC CC CC CC CC CC CC CC CC CC CC ................
00416C90 CC CC CC CC CC CC CC CC CC CC CC CC CC CC CC CC ................
00416CA0 CC CC CC CC CC CC CC CC CC CC CC CC CC CC CC CC ................
00416CB0 CC CC CC CC CC CC CC CC CC CC CC CC CC CC CC CC ................
00416CC0 CC CC CC CC CC CC CC CC CC CC CC CC CC CC CC CC ................
00416CD0 CC CC CC CC CC CC CC CC CC CC CC CC CC CC CC CC ................
00416CE0 CC CC CC CC CC CC CC CC CC CC CC CC CC CC CC CC ................
00416CF0 CC CC CC CC CC CC CC CC CC CC CC CC CC CC CC CC ................
00416D00 CC CC CC CC CC CC CC CC CC CC CC CC CC CC CC CC ................
00416D10 CC CC CC CC CC CC CC CC CC CC CC CC CC CC CC CC ................
00416D20 CC CC CC CC CC CC CC CC CC CC CC CC CC CC CC CC ................
00416D30 CC CC CC CC CC CC CC CC CC CC CC CC CC CC CC CC ................
00416D40 CC CC CC CC CC CC CC CC CC CC CC CC CC CC CC CC ................
00416D50 CC CC CC CC CC CC CC CC CC CC CC CC CC CC CC CC ................
00416D60 CC CC CC CC CC CC CC CC CC CC CC CC CC CC CC CC ................
00416D70 CC CC CC CC CC CC CC CC CC CC CC CC CC CC CC CC ................
00416D80 CC CC CC CC CC CC CC CC CC CC CC CC CC CC CC CC ................
00416D90 CC CC CC CC CC CC CC CC CC CC CC CC CC CC CC CC ................
00416DA0 CC CC CC CC CC CC CC CC CC CC CC CC CC CC CC CC ................
00416DB0 CC CC CC CC CC CC CC CC CC CC CC CC CC CC CC CC ................
00416DC0 CC CC CC CC CC CC CC CC CC CC CC CC CC CC CC CC ................
00416DD0 CC CC CC CC CC CC CC CC CC CC CC CC CC CC CC CC ................
00416DE0 CC CC CC CC CC CC CC CC CC CC CC CC CC CC CC CC ................
00416DF0 CC CC CC CC CC CC CC CC CC CC CC CC CC CC CC CC ................
00416E00 CC CC CC CC CC CC CC CC CC CC CC CC CC CC CC CC ................
00416E10 CC CC CC CC CC CC CC CC CC CC CC CC CC CC CC CC ................
00416E20 CC CC CC CC CC CC CC CC CC CC CC CC CC CC CC CC ................
00416E30 CC CC CC CC CC CC CC CC CC CC CC CC CC CC CC CC ................
00416E40 CC CC CC CC CC CC CC CC CC CC CC CC CC CC CC CC ................
00416E50 CC CC CC CC CC CC CC CC CC CC CC CC CC CC CC CC ................
00416E60 CC CC CC CC CC CC CC CC CC CC CC CC CC CC CC CC ................
00416E70 CC CC CC CC CC CC CC CC CC CC CC CC CC CC CC CC ................
00416E80 CC CC CC CC CC CC CC CC CC CC CC CC CC CC CC CC ................
00416E90 CC CC CC CC CC CC CC CC CC CC CC CC CC CC CC CC ................
00416EA0 CC CC CC CC CC CC CC CC CC CC CC CC CC CC CC CC ................
00416EB0 CC CC CC CC CC CC CC CC CC CC CC CC CC CC CC CC ................
00416EC0 CC CC CC CC CC CC CC CC CC CC CC CC CC CC CC CC ................
00416ED0 CC CC CC CC CC CC CC CC CC CC CC CC CC CC CC CC ................
00416EE0 CC CC CC CC CC CC CC CC CC CC CC CC CC CC CC CC ................
00416EF0 CC CC CC CC CC CC CC CC CC CC CC CC CC CC CC CC ................
00416F00 CC CC CC CC CC CC CC CC CC CC CC CC CC CC CC CC ................
00416F10 CC CC CC CC CC CC CC CC CC CC CC CC CC CC CC CC ................
00416F20 CC CC CC CC CC CC CC CC CC CC CC CC CC CC CC CC ................
00416F30 CC CC CC CC CC CC CC CC CC CC CC CC CC CC CC CC ................
00416F40 CC CC CC CC CC CC CC CC CC CC CC CC CC CC CC CC ................
00416F50 CC CC CC CC CC CC CC CC CC CC CC CC CC CC CC CC ................
00416F60 CC CC CC CC CC CC CC CC CC CC CC CC CC CC CC CC ................
00416F70 CC CC CC CC CC CC CC CC CC CC CC CC CC CC CC CC ................
00416F80 CC CC CC CC CC CC CC CC CC CC CC CC CC CC CC CC ................
00416F90 CC CC CC CC CC CC CC CC CC CC CC CC CC CC CC CC ................
00416FA0 CC CC CC CC CC CC CC CC CC CC CC CC CC CC CC CC ................
00416FB0 CC CC CC CC CC CC CC CC CC CC CC CC CC CC CC CC ................
00416FC0 CC CC CC CC CC CC CC CC CC CC CC CC CC CC CC CC ................
00416FD0 CC CC CC CC CC CC CC CC CC CC CC CC CC CC CC CC ................
00416FE0 CC CC CC CC CC CC CC CC CC CC CC CC CC CC CC CC ................
00416FF0 CC CC CC CC CC CC CC CC CC CC CC CC CC CC CC CC ................
00417000 CC CC CC CC CC CC CC CC CC CC CC CC CC CC CC CC ................
00417010 CC CC CC CC CC CC CC CC CC CC CC CC CC CC CC CC ................
00417020 CC CC CC CC CC CC CC CC CC CC CC CC CC CC CC CC ................
00417030 CC CC CC CC CC CC CC CC CC CC CC CC CC CC CC CC ................
00417040 CC CC CC CC CC CC CC CC CC CC CC CC CC CC CC CC ................
00417050 CC CC CC CC CC CC CC CC CC CC CC CC CC CC CC CC ................
00417060 CC CC CC CC CC CC CC CC CC CC CC CC CC CC CC CC ................
00417070 CC CC CC CC CC CC CC CC CC CC CC CC CC CC CC CC ................
00417080 CC CC CC CC CC CC CC CC CC CC CC CC CC CC CC CC ................
00417090 CC CC CC CC CC CC CC CC CC CC CC CC CC CC CC CC ................
004170A0 CC CC CC CC CC CC CC CC CC CC CC CC CC CC CC CC ................
004170B0 CC CC CC CC CC CC CC CC CC CC CC CC 00 00 00 00 ................
004170C0 00 00 00 00 00 00 00 00 00 00 00 00 00 00 00 00 ................
; ...
